   1              	 .syntax unified
   2              	 .cpu cortex-m3
   3              	 .fpu softvfp
   4              	 .eabi_attribute 20,1
   5              	 .eabi_attribute 21,1
   6              	 .eabi_attribute 23,3
   7              	 .eabi_attribute 24,1
   8              	 .eabi_attribute 25,1
   9              	 .eabi_attribute 26,1
  10              	 .eabi_attribute 30,1
  11              	 .eabi_attribute 34,1
  12              	 .eabi_attribute 18,4
  13              	 .thumb
  14              	 .file "ExtruderBoard.cc"
  15              	 .text
  16              	.Ltext0:
  17              	 .cfi_sections .debug_frame
  18              	 .section .text._ZN14HeatingElementD2Ev,"axG",%progbits,_ZN14HeatingElementD5Ev,comdat
  19              	 .align 2
  20              	 .weak _ZN14HeatingElementD2Ev
  21              	 .thumb
  22              	 .thumb_func
  24              	_ZN14HeatingElementD2Ev:
  25              	.LFB66:
  26              	 .file 1 "src/MightyBoard/shared/HeatingElement.hh"
   1:src/MightyBoard/shared/HeatingElement.hh **** /*
   2:src/MightyBoard/shared/HeatingElement.hh ****  * Copyright 2010 by Adam Mayer	 <adam@makerbot.com>
   3:src/MightyBoard/shared/HeatingElement.hh ****  *
   4:src/MightyBoard/shared/HeatingElement.hh ****  * This program is free software: you can redistribute it and/or modify
   5:src/MightyBoard/shared/HeatingElement.hh ****  * it under the terms of the GNU General Public License as published by
   6:src/MightyBoard/shared/HeatingElement.hh ****  * the Free Software Foundation, either version 3 of the License, or
   7:src/MightyBoard/shared/HeatingElement.hh ****  * (at your option) any later version.
   8:src/MightyBoard/shared/HeatingElement.hh ****  *
   9:src/MightyBoard/shared/HeatingElement.hh ****  * This program is distributed in the hope that it will be useful,
  10:src/MightyBoard/shared/HeatingElement.hh ****  * but WITHOUT ANY WARRANTY; without even the implied warranty of
  11:src/MightyBoard/shared/HeatingElement.hh ****  * MERCHANTABILITY or FITNESS FOR A PARTICULAR PURPOSE.  See the
  12:src/MightyBoard/shared/HeatingElement.hh ****  * GNU General Public License for more details.
  13:src/MightyBoard/shared/HeatingElement.hh ****  *
  14:src/MightyBoard/shared/HeatingElement.hh ****  * You should have received a copy of the GNU General Public License
  15:src/MightyBoard/shared/HeatingElement.hh ****  * along with this program.  If not, see <http://www.gnu.org/licenses/>
  16:src/MightyBoard/shared/HeatingElement.hh ****  */
  17:src/MightyBoard/shared/HeatingElement.hh **** 
  18:src/MightyBoard/shared/HeatingElement.hh **** #ifndef HEATINGELEMENT_HH_
  19:src/MightyBoard/shared/HeatingElement.hh **** #define HEATINGELEMENT_HH_
  20:src/MightyBoard/shared/HeatingElement.hh **** 
  21:src/MightyBoard/shared/HeatingElement.hh **** #include <stdint.h>
  22:src/MightyBoard/shared/HeatingElement.hh **** 
  23:src/MightyBoard/shared/HeatingElement.hh **** /// The heating element interface is a standard interface used to communicate with
  24:src/MightyBoard/shared/HeatingElement.hh **** /// things that can control
  25:src/MightyBoard/shared/HeatingElement.hh **** /// \ingroup SoftwareLibraries
  26:src/MightyBoard/shared/HeatingElement.hh **** class HeatingElement {
  27:src/MightyBoard/shared/HeatingElement.hh **** public:
  28:src/MightyBoard/shared/HeatingElement.hh **** 		virtual ~HeatingElement(){};
  27              	 .loc 1 28 0
  28              	 .cfi_startproc
  29              	 
  30              	 
  31              	 
  32              	.LVL0:
  33              	.LBB32:
  34              	 .loc 1 28 0
  35 0000 014B     	 ldr r3,.L3
  36 0002 0360     	 str r3,[r0,#0]
  37              	.LBE32:
  38 0004 7047     	 bx lr
  39              	.L4:
  40 0006 00BF     	 .align 2
  41              	.L3:
  42 0008 08000000 	 .word _ZTV14HeatingElement+8
  43              	 .cfi_endproc
  44              	.LFE66:
  46              	 .section .text._ZN22ExtruderHeatingElementD2Ev,"axG",%progbits,_ZN22ExtruderHeatingElementD5Ev,comdat
  47              	 .align 2
  48              	 .weak _ZN22ExtruderHeatingElementD2Ev
  49              	 .thumb
  50              	 .thumb_func
  52              	_ZN22ExtruderHeatingElementD2Ev:
  53              	.LFB85:
  54              	 .file 2 "src/MightyBoard/Motherboard/ExtruderBoard.hh"
   1:src/MightyBoard/Motherboard/ExtruderBoard.hh **** /*
   2:src/MightyBoard/Motherboard/ExtruderBoard.hh ****  * Copyright 2010 by Adam Mayer	 <adam@makerbot.com>
   3:src/MightyBoard/Motherboard/ExtruderBoard.hh ****  *
   4:src/MightyBoard/Motherboard/ExtruderBoard.hh ****  * This program is free software: you can redistribute it and/or modify
   5:src/MightyBoard/Motherboard/ExtruderBoard.hh ****  * it under the terms of the GNU General Public License as published by
   6:src/MightyBoard/Motherboard/ExtruderBoard.hh ****  * the Free Software Foundation, either version 3 of the License, or
   7:src/MightyBoard/Motherboard/ExtruderBoard.hh ****  * (at your option) any later version.
   8:src/MightyBoard/Motherboard/ExtruderBoard.hh ****  *
   9:src/MightyBoard/Motherboard/ExtruderBoard.hh ****  * This program is distributed in the hope that it will be useful,
  10:src/MightyBoard/Motherboard/ExtruderBoard.hh ****  * but WITHOUT ANY WARRANTY; without even the implied warranty of
  11:src/MightyBoard/Motherboard/ExtruderBoard.hh ****  * MERCHANTABILITY or FITNESS FOR A PARTICULAR PURPOSE.  See the
  12:src/MightyBoard/Motherboard/ExtruderBoard.hh ****  * GNU General Public License for more details.
  13:src/MightyBoard/Motherboard/ExtruderBoard.hh ****  *
  14:src/MightyBoard/Motherboard/ExtruderBoard.hh ****  * You should have received a copy of the GNU General Public License
  15:src/MightyBoard/Motherboard/ExtruderBoard.hh ****  * along with this program.  If not, see <http://www.gnu.org/licenses/>
  16:src/MightyBoard/Motherboard/ExtruderBoard.hh ****  */
  17:src/MightyBoard/Motherboard/ExtruderBoard.hh **** 
  18:src/MightyBoard/Motherboard/ExtruderBoard.hh **** #ifndef BOARDS_ECV34_EXTRUDER_BOARD_HH_
  19:src/MightyBoard/Motherboard/ExtruderBoard.hh **** #define BOARDS_ECV34_EXTRUDER_BOARD_HH_
  20:src/MightyBoard/Motherboard/ExtruderBoard.hh **** 
  21:src/MightyBoard/Motherboard/ExtruderBoard.hh **** //#include "UART.hh"
  22:src/MightyBoard/Motherboard/ExtruderBoard.hh **** //#include "ExtruderMotor.hh"
  23:src/MightyBoard/Motherboard/ExtruderBoard.hh **** #include "Thermistor.hh"
  24:src/MightyBoard/Motherboard/ExtruderBoard.hh **** #include "Thermocouple.hh"
  25:src/MightyBoard/Motherboard/ExtruderBoard.hh **** #include "HeatingElement.hh"
  26:src/MightyBoard/Motherboard/ExtruderBoard.hh **** #include "Heater.hh"
  27:src/MightyBoard/Motherboard/ExtruderBoard.hh **** //#include "SoftwareServo.hh"
  28:src/MightyBoard/Motherboard/ExtruderBoard.hh **** #include "EepromMap.hh"
  29:src/MightyBoard/Motherboard/ExtruderBoard.hh **** #include "CoolingFan.hh"
  30:src/MightyBoard/Motherboard/ExtruderBoard.hh **** //#include "MotorController.hh"
  31:src/MightyBoard/Motherboard/ExtruderBoard.hh **** 
  32:src/MightyBoard/Motherboard/ExtruderBoard.hh **** /// Extruder heating element on v34 Extruder controller
  33:src/MightyBoard/Motherboard/ExtruderBoard.hh **** /// \ingroup ECv34
  34:src/MightyBoard/Motherboard/ExtruderBoard.hh **** class ExtruderHeatingElement : public HeatingElement {
  55              	 .loc 2 34 0
  56              	 .cfi_startproc
  57              	 
  58              	 
  59              	 
  60              	.LVL1:
  61              	.LBB33:
  62              	.LBB34:
  63              	.LBB35:
  64              	.LBB36:
  65              	 .loc 1 28 0
  66 0000 014B     	 ldr r3,.L8
  67 0002 0360     	 str r3,[r0,#0]
  68              	.LBE36:
  69              	.LBE35:
  70              	.LBE34:
  71              	.LBE33:
  72              	 .loc 2 34 0
  73 0004 7047     	 bx lr
  74              	.L9:
  75 0006 00BF     	 .align 2
  76              	.L8:
  77 0008 08000000 	 .word _ZTV14HeatingElement+8
  78              	 .cfi_endproc
  79              	.LFE85:
  81              	 .section .text._ZN22ExtruderHeatingElementD0Ev,"axG",%progbits,_ZN22ExtruderHeatingElementD5Ev,comdat
  82              	 .align 2
  83              	 .weak _ZN22ExtruderHeatingElementD0Ev
  84              	 .thumb
  85              	 .thumb_func
  87              	_ZN22ExtruderHeatingElementD0Ev:
  88              	.LFB87:
  89              	 .loc 2 34 0
  90              	 .cfi_startproc
  91              	 
  92              	 
  93              	.LVL2:
  94 0000 10B5     	 push {r4,lr}
  95              	.LCFI0:
  96              	 .cfi_def_cfa_offset 8
  97              	 .cfi_offset 14,-4
  98              	 .cfi_offset 4,-8
  99 0002 0446     	 mov r4,r0
 100              	.LVL3:
 101              	.LBB37:
 102              	.LBB38:
 103              	.LBB39:
 104              	.LBB40:
 105              	.LBB41:
 106              	.LBB42:
 107              	 .loc 1 28 0
 108 0004 024B     	 ldr r3,.L14
 109 0006 0360     	 str r3,[r0,#0]
 110              	.LBE42:
 111              	.LBE41:
 112              	.LBE40:
 113              	.LBE39:
 114              	.LBE38:
 115              	.LBE37:
 116              	 .loc 2 34 0
 117 0008 FFF7FEFF 	 bl _ZdlPv
 118              	.LVL4:
 119 000c 2046     	 mov r0,r4
 120 000e 10BD     	 pop {r4,pc}
 121              	.L15:
 122              	 .align 2
 123              	.L14:
 124 0010 08000000 	 .word _ZTV14HeatingElement+8
 125              	 .cfi_endproc
 126              	.LFE87:
 128              	 .section .text._ZN14HeatingElementD0Ev,"axG",%progbits,_ZN14HeatingElementD5Ev,comdat
 129              	 .align 2
 130              	 .weak _ZN14HeatingElementD0Ev
 131              	 .thumb
 132              	 .thumb_func
 134              	_ZN14HeatingElementD0Ev:
 135              	.LFB68:
 136              	 .loc 1 28 0
 137              	 .cfi_startproc
 138              	 
 139              	 
 140              	.LVL5:
 141 0000 10B5     	 push {r4,lr}
 142              	.LCFI1:
 143              	 .cfi_def_cfa_offset 8
 144              	 .cfi_offset 14,-4
 145              	 .cfi_offset 4,-8
 146 0002 0446     	 mov r4,r0
 147              	.LVL6:
 148              	.LBB43:
 149              	.LBB44:
 150              	.LBB45:
 151              	 .loc 1 28 0
 152 0004 024B     	 ldr r3,.L19
 153 0006 0360     	 str r3,[r0,#0]
 154              	.LBE45:
 155              	.LBE44:
 156              	.LBE43:
 157 0008 FFF7FEFF 	 bl _ZdlPv
 158              	.LVL7:
 159 000c 2046     	 mov r0,r4
 160 000e 10BD     	 pop {r4,pc}
 161              	.L20:
 162              	 .align 2
 163              	.L19:
 164 0010 08000000 	 .word _ZTV14HeatingElement+8
 165              	 .cfi_endproc
 166              	.LFE68:
 168              	 .section .text._ZN13ExtruderBoard5resetEv,"ax",%progbits
 169              	 .align 2
 170              	 .global _ZN13ExtruderBoard5resetEv
 171              	 .thumb
 172              	 .thumb_func
 174              	_ZN13ExtruderBoard5resetEv:
 175              	.LFB90:
 176              	 .file 3 "src/MightyBoard/Motherboard/ExtruderBoard.cc"
   1:src/MightyBoard/Motherboard/ExtruderBoard.cc **** /*
   2:src/MightyBoard/Motherboard/ExtruderBoard.cc ****  * Copyright 2010 by Adam Mayer	 <adam@makerbot.com>
   3:src/MightyBoard/Motherboard/ExtruderBoard.cc ****  *
   4:src/MightyBoard/Motherboard/ExtruderBoard.cc ****  * This program is free software: you can redistribute it and/or modify
   5:src/MightyBoard/Motherboard/ExtruderBoard.cc ****  * it under the terms of the GNU General Public License as published by
   6:src/MightyBoard/Motherboard/ExtruderBoard.cc ****  * the Free Software Foundation, either version 3 of the License, or
   7:src/MightyBoard/Motherboard/ExtruderBoard.cc ****  * (at your option) any later version.
   8:src/MightyBoard/Motherboard/ExtruderBoard.cc ****  *
   9:src/MightyBoard/Motherboard/ExtruderBoard.cc ****  * This program is distributed in the hope that it will be useful,
  10:src/MightyBoard/Motherboard/ExtruderBoard.cc ****  * but WITHOUT ANY WARRANTY; without even the implied warranty of
  11:src/MightyBoard/Motherboard/ExtruderBoard.cc ****  * MERCHANTABILITY or FITNESS FOR A PARTICULAR PURPOSE.  See the
  12:src/MightyBoard/Motherboard/ExtruderBoard.cc ****  * GNU General Public License for more details.
  13:src/MightyBoard/Motherboard/ExtruderBoard.cc ****  *
  14:src/MightyBoard/Motherboard/ExtruderBoard.cc ****  * You should have received a copy of the GNU General Public License
  15:src/MightyBoard/Motherboard/ExtruderBoard.cc ****  * along with this program.  If not, see <http://www.gnu.org/licenses/>
  16:src/MightyBoard/Motherboard/ExtruderBoard.cc ****  */
  17:src/MightyBoard/Motherboard/ExtruderBoard.cc **** 
  18:src/MightyBoard/Motherboard/ExtruderBoard.cc **** #include "ExtruderBoard.hh"
  19:src/MightyBoard/Motherboard/ExtruderBoard.cc **** #include "HeatingElement.hh"
  20:src/MightyBoard/Motherboard/ExtruderBoard.cc **** #include "Configuration.hh"
  21:src/MightyBoard/Motherboard/ExtruderBoard.cc **** #include "CoolingFan.hh"
  22:src/MightyBoard/Motherboard/ExtruderBoard.cc **** #include "Eeprom.hh"
  23:src/MightyBoard/Motherboard/ExtruderBoard.cc **** #include "EepromMap.hh"
  24:src/MightyBoard/Motherboard/ExtruderBoard.cc **** //#include <avr/interrupt.h>
  25:src/MightyBoard/Motherboard/ExtruderBoard.cc **** //#include <util/atomic.h>
  26:src/MightyBoard/Motherboard/ExtruderBoard.cc **** //#include <avr/sfr_defs.h>
  27:src/MightyBoard/Motherboard/ExtruderBoard.cc **** //#include <avr/io.h>
  28:src/MightyBoard/Motherboard/ExtruderBoard.cc **** extern "C" {
  29:src/MightyBoard/Motherboard/ExtruderBoard.cc **** 	#include "lpc17xx_timer.h"
  30:src/MightyBoard/Motherboard/ExtruderBoard.cc **** #include "comm.h"
  31:src/MightyBoard/Motherboard/ExtruderBoard.cc **** #include "lpc17xx_pwm.h"
  32:src/MightyBoard/Motherboard/ExtruderBoard.cc **** }
  33:src/MightyBoard/Motherboard/ExtruderBoard.cc **** 
  34:src/MightyBoard/Motherboard/ExtruderBoard.cc **** 
  35:src/MightyBoard/Motherboard/ExtruderBoard.cc **** //ExtruderBoard ExtruderBoard::extruder_board;
  36:src/MightyBoard/Motherboard/ExtruderBoard.cc **** 
  37:src/MightyBoard/Motherboard/ExtruderBoard.cc **** ExtruderBoard::ExtruderBoard(uint8_t slave_id_in, Pin HeaterPin_In, Pin FanPin_In,
  38:src/MightyBoard/Motherboard/ExtruderBoard.cc **** 		Pin ThermocouplePin_In,	uint16_t eeprom_base) :
  39:src/MightyBoard/Motherboard/ExtruderBoard.cc **** //     		extruder_thermocouple(ThermocouplePin_In,THERMOCOUPLE_SCK,THERMOCOUPLE_SO),
  40:src/MightyBoard/Motherboard/ExtruderBoard.cc **** 			extruder_thermistor(slave_id_in, 0),
  41:src/MightyBoard/Motherboard/ExtruderBoard.cc ****      		extruder_element(slave_id_in),
  42:src/MightyBoard/Motherboard/ExtruderBoard.cc **** //     		extruder_heater(extruder_thermocouple,extruder_element,SAMPLE_INTERVAL_MICROS_THERMOCOUPLE
  43:src/MightyBoard/Motherboard/ExtruderBoard.cc ****      		extruder_heater(extruder_thermistor,extruder_element,SAMPLE_INTERVAL_MICROS_THERMOCOUPLE,
  44:src/MightyBoard/Motherboard/ExtruderBoard.cc ****         		  (eeprom_base+ toolhead_eeprom_offsets::EXTRUDER_PID_BASE), true ),
  45:src/MightyBoard/Motherboard/ExtruderBoard.cc ****       		coolingFan(extruder_heater, (eeprom_base + toolhead_eeprom_offsets::COOLING_FAN_SETTINGS), 
  46:src/MightyBoard/Motherboard/ExtruderBoard.cc ****       		slave_id(slave_id_in),
  47:src/MightyBoard/Motherboard/ExtruderBoard.cc ****       		Heater_Pin(HeaterPin_In),
  48:src/MightyBoard/Motherboard/ExtruderBoard.cc **** 			eeprom_base(eeprom_base)
  49:src/MightyBoard/Motherboard/ExtruderBoard.cc **** {
  50:src/MightyBoard/Motherboard/ExtruderBoard.cc **** }
  51:src/MightyBoard/Motherboard/ExtruderBoard.cc **** 
  52:src/MightyBoard/Motherboard/ExtruderBoard.cc **** 
  53:src/MightyBoard/Motherboard/ExtruderBoard.cc **** void ExtruderBoard::reset() {
 177              	 .loc 3 53 0
 178              	 .cfi_startproc
 179              	 
 180              	 
 181              	.LVL8:
 182 0000 10B5     	 push {r4,lr}
 183              	.LCFI2:
 184              	 .cfi_def_cfa_offset 8
 185              	 .cfi_offset 14,-4
 186              	 .cfi_offset 4,-8
 187 0002 0446     	 mov r4,r0
  54:src/MightyBoard/Motherboard/ExtruderBoard.cc **** 	xprintf("ExtruderBoard::reset()" " (%s:%d)\n",_F_,_L_);
 188              	 .loc 3 54 0
 189 0004 40F20000 	 movw r0,#:lower16:.LC0
 190              	.LVL9:
 191 0008 C0F20000 	 movt r0,#:upper16:.LC0
 192 000c 1149     	 ldr r1,.L23
 193 000e 4FF03602 	 mov r2,#54
 194 0012 FFF7FEFF 	 bl xprintf
 195              	.LVL10:
 196              	.LBB48:
 197              	.LBB49:
 198              	 .file 4 "src/MightyBoard/shared/Pin.hh"
   1:src/MightyBoard/shared/Pin.hh **** #ifndef PIN_HH
   2:src/MightyBoard/shared/Pin.hh **** #define PIN_HH
   3:src/MightyBoard/shared/Pin.hh **** 
   4:src/MightyBoard/shared/Pin.hh **** #include "LPCPort.hh"
   5:src/MightyBoard/shared/Pin.hh **** #include "Pin.hh"
   6:src/MightyBoard/shared/Pin.hh **** extern "C" {
   7:src/MightyBoard/shared/Pin.hh **** 	#include "lpc17xx_gpio.h"
   8:src/MightyBoard/shared/Pin.hh **** 	#include "lpc17xx_pinsel.h"
   9:src/MightyBoard/shared/Pin.hh **** 	#include "comm.h"
  10:src/MightyBoard/shared/Pin.hh **** }
  11:src/MightyBoard/shared/Pin.hh **** 
  12:src/MightyBoard/shared/Pin.hh **** /// \ingroup HardwareLibraries
  13:src/MightyBoard/shared/Pin.hh **** class Pin {
  14:src/MightyBoard/shared/Pin.hh **** private:
  15:src/MightyBoard/shared/Pin.hh **** 	uint8_t port_base;
  16:src/MightyBoard/shared/Pin.hh **** 	bool is_null;
  17:src/MightyBoard/shared/Pin.hh **** 	uint8_t pin_index;
  18:src/MightyBoard/shared/Pin.hh **** 	uint8_t pin_mask;
  19:src/MightyBoard/shared/Pin.hh **** 	uint8_t pin_mask_inverted;
  20:src/MightyBoard/shared/Pin.hh **** 
  21:src/MightyBoard/shared/Pin.hh **** public:
  22:src/MightyBoard/shared/Pin.hh **** 	Pin();
  23:src/MightyBoard/shared/Pin.hh **** 	Pin(const LPCPort& port_in, uint8_t pin_index_in);
  24:src/MightyBoard/shared/Pin.hh **** 	Pin(const Pin& other_pin);
  25:src/MightyBoard/shared/Pin.hh **** 	bool isNull() const;
  26:src/MightyBoard/shared/Pin.hh **** 	void setDirection(bool out) const;
  27:src/MightyBoard/shared/Pin.hh **** 	bool /*Pin::*/getValue() const {
  28:src/MightyBoard/shared/Pin.hh **** 		if (is_null)
  29:src/MightyBoard/shared/Pin.hh **** 			return false; // null pin is always low ... ?
  30:src/MightyBoard/shared/Pin.hh **** 		return ((uint8_t)(FIO_ReadValue(port_base) & _BV(pin_index))?1:0);
  31:src/MightyBoard/shared/Pin.hh **** //		return (uint8_t)((uint8_t)PINx & (uint8_t)pin_mask) != 0;
  32:src/MightyBoard/shared/Pin.hh **** 	};
  33:src/MightyBoard/shared/Pin.hh **** 
  34:src/MightyBoard/shared/Pin.hh **** 	void /*Pin::*/setValue(bool on) const {
  35:src/MightyBoard/shared/Pin.hh **** 		if (is_null)
 199              	 .loc 4 35 0
 200 0016 94F8B530 	 ldrb r3,[r4,#181]
 201 001a 4BB9     	 cbnz r3,.L22
  36:src/MightyBoard/shared/Pin.hh **** 		 	return;
  37:src/MightyBoard/shared/Pin.hh **** 		// uint8_t oldSREG = SREG;
  38:src/MightyBoard/shared/Pin.hh **** 
  39:src/MightyBoard/shared/Pin.hh **** //		xprintf("on:%d port_base:%d pi_index:%d" " (%s:%d)\n",on,port_base,pin_index,_F_,_L_);
  40:src/MightyBoard/shared/Pin.hh **** 		// cli();
  41:src/MightyBoard/shared/Pin.hh **** 		if (on) {
  42:src/MightyBoard/shared/Pin.hh **** //			PORTx |= pin_mask;
  43:src/MightyBoard/shared/Pin.hh **** //			xprintf("%x (%s:%d)\n",&GPIO_SetValue,_F_,_L_);
  44:src/MightyBoard/shared/Pin.hh **** 			GPIO_SetValue(port_base, _BV(pin_index));
  45:src/MightyBoard/shared/Pin.hh **** 		} else {
  46:src/MightyBoard/shared/Pin.hh **** //			PORTx &= pin_mask_inverted;
  47:src/MightyBoard/shared/Pin.hh **** //			xprintf("%x (%s:%d)\n",&GPIO_ClearValue,_F_,_L_);
  48:src/MightyBoard/shared/Pin.hh **** 			GPIO_ClearValue(port_base, _BV(pin_index));
 202              	 .loc 4 48 0
 203 001c 94F8B630 	 ldrb r3,[r4,#182]
 204 0020 94F8B400 	 ldrb r0,[r4,#180]
 205 0024 4FF00101 	 mov r1,#1
 206 0028 01FA03F1 	 lsl r1,r1,r3
 207 002c FFF7FEFF 	 bl GPIO_ClearValue
 208              	.L22:
 209              	.LBE49:
 210              	.LBE48:
  55:src/MightyBoard/Motherboard/ExtruderBoard.cc **** 	// Set the output mode for the mosfets.  
  56:src/MightyBoard/Motherboard/ExtruderBoard.cc **** 	Heater_Pin.setValue(false);
  57:src/MightyBoard/Motherboard/ExtruderBoard.cc **** 	Heater_Pin.setDirection(true);
 211              	 .loc 3 57 0
 212 0030 04F1B400 	 add r0,r4,#180
 213 0034 4FF00101 	 mov r1,#1
 214 0038 FFF7FEFF 	 bl _ZNK3Pin12setDirectionEb
  58:src/MightyBoard/Motherboard/ExtruderBoard.cc **** 
  59:src/MightyBoard/Motherboard/ExtruderBoard.cc **** 	extruder_heater.reset();
 215              	 .loc 3 59 0
 216 003c 04F12800 	 add r0,r4,#40
 217 0040 FFF7FEFF 	 bl _ZN6Heater5resetEv
  60:src/MightyBoard/Motherboard/ExtruderBoard.cc **** //	extruder_thermocouple.init();
  61:src/MightyBoard/Motherboard/ExtruderBoard.cc **** 	extruder_thermistor.init();
 218              	 .loc 3 61 0
 219 0044 2046     	 mov r0,r4
 220 0046 FFF7FEFF 	 bl _ZN10Thermistor4initEv
  62:src/MightyBoard/Motherboard/ExtruderBoard.cc **** 	coolingFan.reset();
 221              	 .loc 3 62 0
 222 004a 04F1BC00 	 add r0,r4,#188
 223 004e FFF7FEFF 	 bl _ZN10CoolingFan5resetEv
  63:src/MightyBoard/Motherboard/ExtruderBoard.cc **** 
  64:src/MightyBoard/Motherboard/ExtruderBoard.cc **** }
 224              	 .loc 3 64 0
 225 0052 10BD     	 pop {r4,pc}
 226              	.L24:
 227              	 .align 2
 228              	.L23:
 229 0054 1C000000 	 .word .LC1+28
 230              	 .cfi_endproc
 231              	.LFE90:
 233              	 .section .text._ZN13ExtruderBoard16runExtruderSliceEv,"ax",%progbits
 234              	 .align 2
 235              	 .global _ZN13ExtruderBoard16runExtruderSliceEv
 236              	 .thumb
 237              	 .thumb_func
 239              	_ZN13ExtruderBoard16runExtruderSliceEv:
 240              	.LFB91:
  65:src/MightyBoard/Motherboard/ExtruderBoard.cc **** 
  66:src/MightyBoard/Motherboard/ExtruderBoard.cc **** void ExtruderBoard::runExtruderSlice() {
 241              	 .loc 3 66 0
 242              	 .cfi_startproc
 243              	 
 244              	 
 245              	.LVL11:
 246 0000 10B5     	 push {r4,lr}
 247              	.LCFI3:
 248              	 .cfi_def_cfa_offset 8
 249              	 .cfi_offset 14,-4
 250              	 .cfi_offset 4,-8
 251 0002 0446     	 mov r4,r0
  67:src/MightyBoard/Motherboard/ExtruderBoard.cc ****         extruder_heater.manage_temperature();
 252              	 .loc 3 67 0
 253 0004 00F12800 	 add r0,r0,#40
 254              	.LVL12:
 255 0008 FFF7FEFF 	 bl _ZN6Heater18manage_temperatureEv
  68:src/MightyBoard/Motherboard/ExtruderBoard.cc ****         coolingFan.manageCoolingFan();
 256              	 .loc 3 68 0
 257 000c 04F1BC00 	 add r0,r4,#188
 258 0010 FFF7FEFF 	 bl _ZN10CoolingFan16manageCoolingFanEv
  69:src/MightyBoard/Motherboard/ExtruderBoard.cc **** 
  70:src/MightyBoard/Motherboard/ExtruderBoard.cc **** }
 259              	 .loc 3 70 0
 260 0014 10BD     	 pop {r4,pc}
 261              	 .cfi_endproc
 262              	.LFE91:
 264 0016 00BF     	 .section .text._ZN13ExtruderBoard6setFanEh,"ax",%progbits
 265              	 .align 2
 266              	 .global _ZN13ExtruderBoard6setFanEh
 267              	 .thumb
 268              	 .thumb_func
 270              	_ZN13ExtruderBoard6setFanEh:
 271              	.LFB92:
  71:src/MightyBoard/Motherboard/ExtruderBoard.cc **** 
  72:src/MightyBoard/Motherboard/ExtruderBoard.cc **** void ExtruderBoard::setFan(uint8_t on)
  73:src/MightyBoard/Motherboard/ExtruderBoard.cc **** {
 272              	 .loc 3 73 0
 273              	 .cfi_startproc
 274              	 
 275              	 
 276              	.LVL13:
 277 0000 08B5     	 push {r3,lr}
 278              	.LCFI4:
 279              	 .cfi_def_cfa_offset 8
 280              	 .cfi_offset 14,-4
 281              	 .cfi_offset 3,-8
  74:src/MightyBoard/Motherboard/ExtruderBoard.cc **** 	if(on)
 282              	 .loc 3 74 0
 283 0002 21B1     	 cbz r1,.L27
  75:src/MightyBoard/Motherboard/ExtruderBoard.cc **** 		coolingFan.enable();
 284              	 .loc 3 75 0
 285 0004 00F1BC00 	 add r0,r0,#188
 286              	.LVL14:
 287 0008 FFF7FEFF 	 bl _ZN10CoolingFan6enableEv
 288              	.LVL15:
 289 000c 08BD     	 pop {r3,pc}
 290              	.LVL16:
 291              	.L27:
  76:src/MightyBoard/Motherboard/ExtruderBoard.cc **** 	else
  77:src/MightyBoard/Motherboard/ExtruderBoard.cc **** 		coolingFan.disable();
 292              	 .loc 3 77 0
 293 000e 00F1BC00 	 add r0,r0,#188
 294              	.LVL17:
 295 0012 FFF7FEFF 	 bl _ZN10CoolingFan7disableEv
 296              	.LVL18:
 297 0016 08BD     	 pop {r3,pc}
 298              	 .cfi_endproc
 299              	.LFE92:
 301              	 .section .text._Z9pwmEx2_Onb,"ax",%progbits
 302              	 .align 2
 303              	 .global _Z9pwmEx2_Onb
 304              	 .thumb
 305              	 .thumb_func
 307              	_Z9pwmEx2_Onb:
 308              	.LFB93:
  78:src/MightyBoard/Motherboard/ExtruderBoard.cc **** }
  79:src/MightyBoard/Motherboard/ExtruderBoard.cc **** 
  80:src/MightyBoard/Motherboard/ExtruderBoard.cc **** // Turn on/off PWM for Extruder Two (OC1A)
  81:src/MightyBoard/Motherboard/ExtruderBoard.cc **** void pwmEx2_On(bool on) {
 309              	 .loc 3 81 0
 310              	 .cfi_startproc
 311              	 
 312              	 
 313              	.LVL19:
 314 0000 08B5     	 push {r3,lr}
 315              	.LCFI5:
 316              	 .cfi_def_cfa_offset 8
 317              	 .cfi_offset 14,-4
 318              	 .cfi_offset 3,-8
  82:src/MightyBoard/Motherboard/ExtruderBoard.cc **** 	if (on) {
 319              	 .loc 3 82 0
 320 0002 50B1     	 cbz r0,.L30
  83:src/MightyBoard/Motherboard/ExtruderBoard.cc **** 		PWM_ChannelCmd(LPC_PWM1, 4, ENABLE);
 321              	 .loc 3 83 0
 322 0004 4FF40040 	 mov r0,#32768
 323              	.LVL20:
 324 0008 C4F20100 	 movt r0,16385
 325 000c 4FF00401 	 mov r1,#4
 326 0010 4FF00102 	 mov r2,#1
 327 0014 FFF7FEFF 	 bl PWM_ChannelCmd
 328 0018 08BD     	 pop {r3,pc}
 329              	.LVL21:
 330              	.L30:
  84:src/MightyBoard/Motherboard/ExtruderBoard.cc **** //		xprintf("PWM_ChannelCmd(LPC_PWM1, 4, ENABLE)" " (%s:%d)\n",_F_,_L_);
  85:src/MightyBoard/Motherboard/ExtruderBoard.cc **** //		TCCR1A |= 0b10000000;
  86:src/MightyBoard/Motherboard/ExtruderBoard.cc **** 	} else {
  87:src/MightyBoard/Motherboard/ExtruderBoard.cc **** 		PWM_ChannelCmd(LPC_PWM1, 4, DISABLE);
 331              	 .loc 3 87 0
 332 001a 4FF40040 	 mov r0,#32768
 333              	.LVL22:
 334 001e C4F20100 	 movt r0,16385
 335 0022 4FF00401 	 mov r1,#4
 336 0026 4FF00002 	 mov r2,#0
 337 002a FFF7FEFF 	 bl PWM_ChannelCmd
 338 002e 08BD     	 pop {r3,pc}
 339              	 .cfi_endproc
 340              	.LFE93:
 342              	 .section .text._Z9pwmEx1_Onb,"ax",%progbits
 343              	 .align 2
 344              	 .global _Z9pwmEx1_Onb
 345              	 .thumb
 346              	 .thumb_func
 348              	_Z9pwmEx1_Onb:
 349              	.LFB94:
  88:src/MightyBoard/Motherboard/ExtruderBoard.cc **** //		xprintf("PWM_ChannelCmd(LPC_PWM1, 4, DISABLE)" " (%s:%d)\n",_F_,_L_);
  89:src/MightyBoard/Motherboard/ExtruderBoard.cc **** //		TCCR1A &= 0b00111111;
  90:src/MightyBoard/Motherboard/ExtruderBoard.cc **** 	}
  91:src/MightyBoard/Motherboard/ExtruderBoard.cc **** }
  92:src/MightyBoard/Motherboard/ExtruderBoard.cc **** 
  93:src/MightyBoard/Motherboard/ExtruderBoard.cc **** // Turn on/off PWM for Extruder One (OC4A)
  94:src/MightyBoard/Motherboard/ExtruderBoard.cc **** void pwmEx1_On(bool on) {
 350              	 .loc 3 94 0
 351              	 .cfi_startproc
 352              	 
 353              	 
 354              	.LVL23:
 355 0000 08B5     	 push {r3,lr}
 356              	.LCFI6:
 357              	 .cfi_def_cfa_offset 8
 358              	 .cfi_offset 14,-4
 359              	 .cfi_offset 3,-8
  95:src/MightyBoard/Motherboard/ExtruderBoard.cc **** 	if (on) {
 360              	 .loc 3 95 0
 361 0002 50B1     	 cbz r0,.L33
  96:src/MightyBoard/Motherboard/ExtruderBoard.cc **** 		PWM_ChannelCmd(LPC_PWM1, 5, ENABLE);
 362              	 .loc 3 96 0
 363 0004 4FF40040 	 mov r0,#32768
 364              	.LVL24:
 365 0008 C4F20100 	 movt r0,16385
 366 000c 4FF00501 	 mov r1,#5
 367 0010 4FF00102 	 mov r2,#1
 368 0014 FFF7FEFF 	 bl PWM_ChannelCmd
 369 0018 08BD     	 pop {r3,pc}
 370              	.LVL25:
 371              	.L33:
  97:src/MightyBoard/Motherboard/ExtruderBoard.cc **** //		xprintf("PWM_ChannelCmd(LPC_PWM1, 5, ENABLE)" " (%s:%d)\n",_F_,_L_);
  98:src/MightyBoard/Motherboard/ExtruderBoard.cc **** //		TCCR4A |= 0b10000000;
  99:src/MightyBoard/Motherboard/ExtruderBoard.cc **** 	} else {
 100:src/MightyBoard/Motherboard/ExtruderBoard.cc **** 		PWM_ChannelCmd(LPC_PWM1, 5, DISABLE);
 372              	 .loc 3 100 0
 373 001a 4FF40040 	 mov r0,#32768
 374              	.LVL26:
 375 001e C4F20100 	 movt r0,16385
 376 0022 4FF00501 	 mov r1,#5
 377 0026 4FF00002 	 mov r2,#0
 378 002a FFF7FEFF 	 bl PWM_ChannelCmd
 379 002e 08BD     	 pop {r3,pc}
 380              	 .cfi_endproc
 381              	.LFE94:
 383              	 .section .text._ZN22ExtruderHeatingElement17setHeatingElementEh,"ax",%progbits
 384              	 .align 2
 385              	 .global _ZN22ExtruderHeatingElement17setHeatingElementEh
 386              	 .thumb
 387              	 .thumb_func
 389              	_ZN22ExtruderHeatingElement17setHeatingElementEh:
 390              	.LFB101:
 101:src/MightyBoard/Motherboard/ExtruderBoard.cc **** //		xprintf("PWM_ChannelCmd(LPC_PWM1, 5, DISABLE)" " (%s:%d)\n",_F_,_L_);
 102:src/MightyBoard/Motherboard/ExtruderBoard.cc **** //		TCCR4A &= 0b00111111;
 103:src/MightyBoard/Motherboard/ExtruderBoard.cc **** 	} 
 104:src/MightyBoard/Motherboard/ExtruderBoard.cc **** }
 105:src/MightyBoard/Motherboard/ExtruderBoard.cc **** 
 106:src/MightyBoard/Motherboard/ExtruderBoard.cc **** ExtruderHeatingElement::ExtruderHeatingElement(uint8_t id):
 107:src/MightyBoard/Motherboard/ExtruderBoard.cc **** 	heater_id(id)
 108:src/MightyBoard/Motherboard/ExtruderBoard.cc **** {
 109:src/MightyBoard/Motherboard/ExtruderBoard.cc **** }
 110:src/MightyBoard/Motherboard/ExtruderBoard.cc **** 
 111:src/MightyBoard/Motherboard/ExtruderBoard.cc **** void ExtruderHeatingElement::setHeatingElement(uint8_t value) {
 391              	 .loc 3 111 0
 392              	 .cfi_startproc
 393              	 
 394              	 
 395              	.LVL27:
 396 0000 10B5     	 push {r4,lr}
 397              	.LCFI7:
 398              	 .cfi_def_cfa_offset 8
 399              	 .cfi_offset 14,-4
 400              	 .cfi_offset 4,-8
 401 0002 84B0     	 sub sp,sp,#16
 402              	.LCFI8:
 403              	 .cfi_def_cfa_offset 24
 404 0004 0C46     	 mov r4,r1
 112:src/MightyBoard/Motherboard/ExtruderBoard.cc **** 	
 113:src/MightyBoard/Motherboard/ExtruderBoard.cc **** 	
 114:src/MightyBoard/Motherboard/ExtruderBoard.cc **** //  	ATOMIC_BLOCK(ATOMIC_RESTORESTATE) {
 115:src/MightyBoard/Motherboard/ExtruderBoard.cc **** 	   if(heater_id == 0)
 405              	 .loc 3 115 0
 406 0006 0379     	 ldrb r3,[r0,#4]
 407 0008 93BB     	 cbnz r3,.L36
 116:src/MightyBoard/Motherboard/ExtruderBoard.cc **** 	   { 
 117:src/MightyBoard/Motherboard/ExtruderBoard.cc ****      		if (value == 0 || value == 255) {
 408              	 .loc 3 117 0
 409 000a 01F1FF33 	 add r3,r1,#-1
 410 000e DBB2     	 uxtb r3,r3
 411 0010 FD2B     	 cmp r3,#253
 412 0012 28D9     	 bls .L37
 118:src/MightyBoard/Motherboard/ExtruderBoard.cc **** 			pwmEx1_On(false);
 413              	 .loc 3 118 0
 414 0014 4FF00000 	 mov r0,#0
 415              	.LVL28:
 416 0018 FFF7FEFF 	 bl _Z9pwmEx1_Onb
 417              	.LVL29:
 119:src/MightyBoard/Motherboard/ExtruderBoard.cc **** 			EX1_PWR.setValue(value == 255);
 418              	 .loc 3 119 0
 419 001c 6846     	 mov r0,sp
 420 001e 40F20001 	 movw r1,#:lower16:.LANCHOR1
 421 0022 C0F20001 	 movt r1,#:upper16:.LANCHOR1
 422 0026 4FF00402 	 mov r2,#4
 423 002a FFF7FEFF 	 bl _ZN3PinC1ERK7LPCPorth
 424              	.LVL30:
 425              	.LBB54:
 426              	.LBB55:
  35:src/MightyBoard/shared/Pin.hh **** 		if (is_null)
 427              	 .loc 4 35 0
 428 002e 9DF80130 	 ldrb r3,[sp,#1]
 429 0032 002B     	 cmp r3,#0
 430 0034 4FD1     	 bne .L35
  41:src/MightyBoard/shared/Pin.hh **** 		if (on) {
 431              	 .loc 4 41 0
 432 0036 FF2C     	 cmp r4,#255
 433 0038 0AD1     	 bne .L39
  44:src/MightyBoard/shared/Pin.hh **** 			GPIO_SetValue(port_base, _BV(pin_index));
 434              	 .loc 4 44 0
 435 003a 9DF80230 	 ldrb r3,[sp,#2]
 436 003e 9DF80000 	 ldrb r0,[sp,#0]
 437 0042 4FF00101 	 mov r1,#1
 438 0046 01FA03F1 	 lsl r1,r1,r3
 439 004a FFF7FEFF 	 bl GPIO_SetValue
 440 004e 42E0     	 b .L35
 441              	.L39:
 442              	 .loc 4 48 0
 443 0050 9DF80230 	 ldrb r3,[sp,#2]
 444 0054 9DF80000 	 ldrb r0,[sp,#0]
 445 0058 4FF00101 	 mov r1,#1
 446 005c 01FA03F1 	 lsl r1,r1,r3
 447 0060 FFF7FEFF 	 bl GPIO_ClearValue
 448 0064 37E0     	 b .L35
 449              	.LVL31:
 450              	.L37:
 451              	.LBE55:
 452              	.LBE54:
 120:src/MightyBoard/Motherboard/ExtruderBoard.cc **** 			} else {
 121:src/MightyBoard/Motherboard/ExtruderBoard.cc **** //				OCR4A = value;
 122:src/MightyBoard/Motherboard/ExtruderBoard.cc **** 				pwmEx1_On(true);
 453              	 .loc 3 122 0
 454 0066 4FF00100 	 mov r0,#1
 455              	.LVL32:
 456 006a FFF7FEFF 	 bl _Z9pwmEx1_Onb
 457              	.LVL33:
 458 006e 32E0     	 b .L35
 459              	.LVL34:
 460              	.L36:
 123:src/MightyBoard/Motherboard/ExtruderBoard.cc **** 				
 124:src/MightyBoard/Motherboard/ExtruderBoard.cc **** 				
 125:src/MightyBoard/Motherboard/ExtruderBoard.cc **** 			}
 126:src/MightyBoard/Motherboard/ExtruderBoard.cc **** 		}
 127:src/MightyBoard/Motherboard/ExtruderBoard.cc **** 		else if(heater_id == 1)
 461              	 .loc 3 127 0
 462 0070 012B     	 cmp r3,#1
 463 0072 30D1     	 bne .L35
 128:src/MightyBoard/Motherboard/ExtruderBoard.cc **** 	   { 
 129:src/MightyBoard/Motherboard/ExtruderBoard.cc ****      		if (value == 0 || value == 255) {
 464              	 .loc 3 129 0
 465 0074 01F1FF33 	 add r3,r1,#-1
 466 0078 DBB2     	 uxtb r3,r3
 467 007a FD2B     	 cmp r3,#253
 468 007c 27D9     	 bls .L40
 130:src/MightyBoard/Motherboard/ExtruderBoard.cc **** 			pwmEx2_On(false);
 469              	 .loc 3 130 0
 470 007e 4FF00000 	 mov r0,#0
 471              	.LVL35:
 472 0082 FFF7FEFF 	 bl _Z9pwmEx2_Onb
 473              	.LVL36:
 131:src/MightyBoard/Motherboard/ExtruderBoard.cc **** 			EX2_PWR.setValue(value == 255);
 474              	 .loc 3 131 0
 475 0086 02A8     	 add r0,sp,#8
 476 0088 40F20001 	 movw r1,#:lower16:.LANCHOR1
 477 008c C0F20001 	 movt r1,#:upper16:.LANCHOR1
 478 0090 4FF00302 	 mov r2,#3
 479 0094 FFF7FEFF 	 bl _ZN3PinC1ERK7LPCPorth
 480              	.LVL37:
 481              	.LBB56:
 482              	.LBB57:
  35:src/MightyBoard/shared/Pin.hh **** 		if (is_null)
 483              	 .loc 4 35 0
 484 0098 9DF80930 	 ldrb r3,[sp,#9]
 485 009c DBB9     	 cbnz r3,.L35
  41:src/MightyBoard/shared/Pin.hh **** 		if (on) {
 486              	 .loc 4 41 0
 487 009e FF2C     	 cmp r4,#255
 488 00a0 0AD1     	 bne .L41
  44:src/MightyBoard/shared/Pin.hh **** 			GPIO_SetValue(port_base, _BV(pin_index));
 489              	 .loc 4 44 0
 490 00a2 9DF80A30 	 ldrb r3,[sp,#10]
 491 00a6 9DF80800 	 ldrb r0,[sp,#8]
 492 00aa 4FF00101 	 mov r1,#1
 493 00ae 01FA03F1 	 lsl r1,r1,r3
 494 00b2 FFF7FEFF 	 bl GPIO_SetValue
 495 00b6 0EE0     	 b .L35
 496              	.L41:
 497              	 .loc 4 48 0
 498 00b8 9DF80A30 	 ldrb r3,[sp,#10]
 499 00bc 9DF80800 	 ldrb r0,[sp,#8]
 500 00c0 4FF00101 	 mov r1,#1
 501 00c4 01FA03F1 	 lsl r1,r1,r3
 502 00c8 FFF7FEFF 	 bl GPIO_ClearValue
 503 00cc 03E0     	 b .L35
 504              	.LVL38:
 505              	.L40:
 506              	.LBE57:
 507              	.LBE56:
 132:src/MightyBoard/Motherboard/ExtruderBoard.cc **** 			
 133:src/MightyBoard/Motherboard/ExtruderBoard.cc **** 			} else {
 134:src/MightyBoard/Motherboard/ExtruderBoard.cc **** //				OCR1A = value;
 135:src/MightyBoard/Motherboard/ExtruderBoard.cc **** 				pwmEx2_On(true);
 508              	 .loc 3 135 0
 509 00ce 4FF00100 	 mov r0,#1
 510              	.LVL39:
 511 00d2 FFF7FEFF 	 bl _Z9pwmEx2_Onb
 512              	.LVL40:
 513              	.L35:
 136:src/MightyBoard/Motherboard/ExtruderBoard.cc **** 			}
 137:src/MightyBoard/Motherboard/ExtruderBoard.cc **** 		}
 138:src/MightyBoard/Motherboard/ExtruderBoard.cc **** //	}
 139:src/MightyBoard/Motherboard/ExtruderBoard.cc **** }
 514              	 .loc 3 139 0
 515 00d6 04B0     	 add sp,sp,#16
 516 00d8 10BD     	 pop {r4,pc}
 517              	 .cfi_endproc
 518              	.LFE101:
 520 00da 00BF     	 .section .text._ZN22ExtruderHeatingElementC2Eh,"ax",%progbits
 521              	 .align 2
 522              	 .global _ZN22ExtruderHeatingElementC2Eh
 523              	 .thumb
 524              	 .thumb_func
 526              	_ZN22ExtruderHeatingElementC2Eh:
 527              	.LFB99:
 106:src/MightyBoard/Motherboard/ExtruderBoard.cc **** ExtruderHeatingElement::ExtruderHeatingElement(uint8_t id):
 528              	 .loc 3 106 0
 529              	 .cfi_startproc
 530              	 
 531              	 
 532              	 
 533              	.LVL41:
 534              	.LBB58:
 107:src/MightyBoard/Motherboard/ExtruderBoard.cc **** 	heater_id(id)
 535              	 .loc 3 107 0
 536 0000 014A     	 ldr r2,.L45
 537 0002 0260     	 str r2,[r0,#0]
 538 0004 0171     	 strb r1,[r0,#4]
 539              	.LBE58:
 109:src/MightyBoard/Motherboard/ExtruderBoard.cc **** }
 540              	 .loc 3 109 0
 541 0006 7047     	 bx lr
 542              	.L46:
 543              	 .align 2
 544              	.L45:
 545 0008 08000000 	 .word .LANCHOR0+8
 546              	 .cfi_endproc
 547              	.LFE99:
 549              	 .section .text._ZN13ExtruderBoardC2Eh3PinS0_S0_t,"ax",%progbits
 550              	 .align 2
 551              	 .global _ZN13ExtruderBoardC2Eh3PinS0_S0_t
 552              	 .thumb
 553              	 .thumb_func
 555              	_ZN13ExtruderBoardC2Eh3PinS0_S0_t:
 556              	.LFB88:
  37:src/MightyBoard/Motherboard/ExtruderBoard.cc **** ExtruderBoard::ExtruderBoard(uint8_t slave_id_in, Pin HeaterPin_In, Pin FanPin_In,
 557              	 .loc 3 37 0
 558              	 .cfi_startproc
 559              	 
 560              	 
 561              	.LVL42:
 562 0000 2DE9F047 	 push {r4,r5,r6,r7,r8,r9,sl,lr}
 563              	.LCFI9:
 564              	 .cfi_def_cfa_offset 32
 565              	 .cfi_offset 14,-4
 566              	 .cfi_offset 10,-8
 567              	 .cfi_offset 9,-12
 568              	 .cfi_offset 8,-16
 569              	 .cfi_offset 7,-20
 570              	 .cfi_offset 6,-24
 571              	 .cfi_offset 5,-28
 572              	 .cfi_offset 4,-32
 573 0004 82B0     	 sub sp,sp,#8
 574              	.LCFI10:
 575              	 .cfi_def_cfa_offset 40
 576 0006 0446     	 mov r4,r0
 577 0008 0F46     	 mov r7,r1
 578 000a 9146     	 mov r9,r2
 579 000c 9A46     	 mov sl,r3
 580 000e BDF82C50 	 ldrh r5,[sp,#44]
 581              	.LBB59:
  48:src/MightyBoard/Motherboard/ExtruderBoard.cc **** 			eeprom_base(eeprom_base)
 582              	 .loc 3 48 0
 583 0012 4FF00002 	 mov r2,#0
 584              	.LVL43:
 585 0016 FFF7FEFF 	 bl _ZN10ThermistorC1Ehh
 586              	.LVL44:
 587 001a 04F12006 	 add r6,r4,#32
 588 001e 3046     	 mov r0,r6
 589 0020 3946     	 mov r1,r7
 590 0022 FFF7FEFF 	 bl _ZN22ExtruderHeatingElementC1Eh
 591 0026 04F12808 	 add r8,r4,#40
 592 002a 05F10A03 	 add r3,r5,#10
 593 002e 9BB2     	 uxth r3,r3
 594 0030 0093     	 str r3,[sp,#0]
 595 0032 4FF00103 	 mov r3,#1
 596 0036 0193     	 str r3,[sp,#4]
 597 0038 4046     	 mov r0,r8
 598 003a 2146     	 mov r1,r4
 599 003c 3246     	 mov r2,r6
 600 003e 4AF22013 	 movw r3,#41248
 601 0042 C0F20703 	 movt r3,7
 602 0046 FFF7FEFF 	 bl _ZN6HeaterC1ER17TemperatureSensorR14HeatingElementmtb
 603 004a 04F1B400 	 add r0,r4,#180
 604 004e 4946     	 mov r1,r9
 605 0050 FFF7FEFF 	 bl _ZN3PinC1ERKS_
 606 0054 84F8B970 	 strb r7,[r4,#185]
 607 0058 05F11A02 	 add r2,r5,#26
 608 005c 04F1BC00 	 add r0,r4,#188
 609 0060 4146     	 mov r1,r8
 610 0062 92B2     	 uxth r2,r2
 611 0064 5346     	 mov r3,sl
 612 0066 FFF7FEFF 	 bl _ZN10CoolingFanC1ER6HeatertRK3Pin
 613 006a 84F8DC50 	 strb r5,[r4,#220]
 614              	.LBE59:
  50:src/MightyBoard/Motherboard/ExtruderBoard.cc **** }
 615              	 .loc 3 50 0
 616 006e 2046     	 mov r0,r4
 617 0070 02B0     	 add sp,sp,#8
 618 0072 BDE8F087 	 pop {r4,r5,r6,r7,r8,r9,sl,pc}
 619              	 .cfi_endproc
 620              	.LFE88:
 622 0076 00BF     	 .section .text._GLOBAL__sub_I__ZN13ExtruderBoardC2Eh3PinS0_S0_t,"ax",%progbits
 623              	 .align 2
 624              	 .thumb
 625              	 .thumb_func
 627              	_GLOBAL__sub_I__ZN13ExtruderBoardC2Eh3PinS0_S0_t:
 628              	.LFB103:
 629              	 .loc 3 139 0
 630              	 .cfi_startproc
 631              	 
 632              	 
 633 0000 10B5     	 push {r4,lr}
 634              	.LCFI11:
 635              	 .cfi_def_cfa_offset 8
 636              	 .cfi_offset 14,-4
 637              	 .cfi_offset 4,-8
 638              	.LVL45:
 639              	.LBB62:
 640              	.LBB63:
 641              	 .file 5 "src/MightyBoard/shared/LPCPort.hh"
   1:src/MightyBoard/shared/LPCPort.hh **** /*
   2:src/MightyBoard/shared/LPCPort.hh **** * Copyright 2010 by Adam Mayer	 <adam@makerbot.com>
   3:src/MightyBoard/shared/LPCPort.hh **** *
   4:src/MightyBoard/shared/LPCPort.hh **** * This program is free software: you can redistribute it and/or modify
   5:src/MightyBoard/shared/LPCPort.hh **** * it under the terms of the GNU General Public License as published by
   6:src/MightyBoard/shared/LPCPort.hh **** * the Free Software Foundation, either version 3 of the License, or
   7:src/MightyBoard/shared/LPCPort.hh **** * (at your option) any later version.
   8:src/MightyBoard/shared/LPCPort.hh **** *
   9:src/MightyBoard/shared/LPCPort.hh **** * This program is distributed in the hope that it will be useful,
  10:src/MightyBoard/shared/LPCPort.hh **** * but WITHOUT ANY WARRANTY; without even the implied warranty of
  11:src/MightyBoard/shared/LPCPort.hh **** * MERCHANTABILITY or FITNESS FOR A PARTICULAR PURPOSE.  See the
  12:src/MightyBoard/shared/LPCPort.hh **** * GNU General Public License for more details.
  13:src/MightyBoard/shared/LPCPort.hh **** *
  14:src/MightyBoard/shared/LPCPort.hh **** * You should have received a copy of the GNU General Public License
  15:src/MightyBoard/shared/LPCPort.hh **** * along with this program.  If not, see <http://www.gnu.org/licenses/>
  16:src/MightyBoard/shared/LPCPort.hh **** */
  17:src/MightyBoard/shared/LPCPort.hh **** 
  18:src/MightyBoard/shared/LPCPort.hh **** #ifndef SHARED_AVR_PORT_HH_
  19:src/MightyBoard/shared/LPCPort.hh **** #define SHARED_AVR_PORT_HH_
  20:src/MightyBoard/shared/LPCPort.hh **** 
  21:src/MightyBoard/shared/LPCPort.hh **** #define __STDC_LIMIT_MACROS
  22:src/MightyBoard/shared/LPCPort.hh **** //#include <stdint.h>
  23:src/MightyBoard/shared/LPCPort.hh **** //#include <util/atomic.h>
  24:src/MightyBoard/shared/LPCPort.hh **** 
  25:src/MightyBoard/shared/LPCPort.hh **** extern "C" {
  26:src/MightyBoard/shared/LPCPort.hh **** 	#include "lpc_types.h"
  27:src/MightyBoard/shared/LPCPort.hh **** 	#include "lpc17xx_gpio.h"
  28:src/MightyBoard/shared/LPCPort.hh **** }
  29:src/MightyBoard/shared/LPCPort.hh **** 
  30:src/MightyBoard/shared/LPCPort.hh **** 
  31:src/MightyBoard/shared/LPCPort.hh **** #define NULL_PORT 0xff
  32:src/MightyBoard/shared/LPCPort.hh **** 
  33:src/MightyBoard/shared/LPCPort.hh **** class LPCPort {
  34:src/MightyBoard/shared/LPCPort.hh **** private:
  35:src/MightyBoard/shared/LPCPort.hh **** 	const uint8_t port_base;
  36:src/MightyBoard/shared/LPCPort.hh **** 	friend class Pin;
  37:src/MightyBoard/shared/LPCPort.hh **** public:
  38:src/MightyBoard/shared/LPCPort.hh **** 	LPCPort();
  39:src/MightyBoard/shared/LPCPort.hh **** 	LPCPort(uint8_t port_base_in);
  40:src/MightyBoard/shared/LPCPort.hh **** 	bool isNull() const;
  41:src/MightyBoard/shared/LPCPort.hh **** 	void setPinDirectionOut(uint8_t pin_index) const;
  42:src/MightyBoard/shared/LPCPort.hh **** 	void setPinDirectionIn(uint8_t pin_index) const;
  43:src/MightyBoard/shared/LPCPort.hh **** 	bool getPin(uint8_t pin_index) const;
  44:src/MightyBoard/shared/LPCPort.hh **** 	void setPinOn(uint8_t pin_index) const;
  45:src/MightyBoard/shared/LPCPort.hh **** 	void setPinOff(uint8_t pin_index) const;
  46:src/MightyBoard/shared/LPCPort.hh **** };
  47:src/MightyBoard/shared/LPCPort.hh **** 
  48:src/MightyBoard/shared/LPCPort.hh **** 
  49:src/MightyBoard/shared/LPCPort.hh **** const LPCPort Port0(0);
 642              	 .loc 5 49 0
 643 0002 40F20000 	 movw r0,#:lower16:.LANCHOR2
 644 0006 C0F20000 	 movt r0,#:upper16:.LANCHOR2
 645 000a 4FF00001 	 mov r1,#0
 646 000e FFF7FEFF 	 bl _ZN7LPCPortC1Eh
  50:src/MightyBoard/shared/LPCPort.hh **** const LPCPort Port1(1);
 647              	 .loc 5 50 0
 648 0012 40F20000 	 movw r0,#:lower16:.LANCHOR3
 649 0016 C0F20000 	 movt r0,#:upper16:.LANCHOR3
 650 001a 4FF00101 	 mov r1,#1
 651 001e FFF7FEFF 	 bl _ZN7LPCPortC1Eh
  51:src/MightyBoard/shared/LPCPort.hh **** const LPCPort Port2(2);
 652              	 .loc 5 51 0
 653 0022 40F20000 	 movw r0,#:lower16:.LANCHOR1
 654 0026 C0F20000 	 movt r0,#:upper16:.LANCHOR1
 655 002a 4FF00201 	 mov r1,#2
 656 002e FFF7FEFF 	 bl _ZN7LPCPortC1Eh
  52:src/MightyBoard/shared/LPCPort.hh **** const LPCPort Port3(3);
 657              	 .loc 5 52 0
 658 0032 40F20000 	 movw r0,#:lower16:.LANCHOR4
 659 0036 C0F20000 	 movt r0,#:upper16:.LANCHOR4
 660 003a 4FF00301 	 mov r1,#3
 661 003e FFF7FEFF 	 bl _ZN7LPCPortC1Eh
  53:src/MightyBoard/shared/LPCPort.hh **** const LPCPort Port4(4);
 662              	 .loc 5 53 0
 663 0042 40F20000 	 movw r0,#:lower16:.LANCHOR5
 664 0046 C0F20000 	 movt r0,#:upper16:.LANCHOR5
 665 004a 4FF00401 	 mov r1,#4
 666 004e FFF7FEFF 	 bl _ZN7LPCPortC1Eh
  54:src/MightyBoard/shared/LPCPort.hh **** 
  55:src/MightyBoard/shared/LPCPort.hh **** const LPCPort NullPort(0xff);
 667              	 .loc 5 55 0
 668 0052 40F20004 	 movw r4,#:lower16:.LANCHOR6
 669 0056 C0F20004 	 movt r4,#:upper16:.LANCHOR6
 670 005a 2046     	 mov r0,r4
 671 005c 4FF0FF01 	 mov r1,#255
 672 0060 FFF7FEFF 	 bl _ZN7LPCPortC1Eh
  49:src/MightyBoard/shared/Pin.hh **** 		}
  50:src/MightyBoard/shared/Pin.hh **** 		// SREG = oldSREG;
  51:src/MightyBoard/shared/Pin.hh **** 	};
  52:src/MightyBoard/shared/Pin.hh **** 
  53:src/MightyBoard/shared/Pin.hh **** 	void /*Pin::*/setValueOn() const {
  54:src/MightyBoard/shared/Pin.hh **** 		if (is_null)
  55:src/MightyBoard/shared/Pin.hh **** 		 	return;
  56:src/MightyBoard/shared/Pin.hh **** 		// uint8_t oldSREG = SREG;
  57:src/MightyBoard/shared/Pin.hh **** 		// cli();
  58:src/MightyBoard/shared/Pin.hh **** //		PORTx |= pin_mask;
  59:src/MightyBoard/shared/Pin.hh **** 		GPIO_SetValue(port_base, _BV(pin_index));
  60:src/MightyBoard/shared/Pin.hh **** 		// SREG = oldSREG;
  61:src/MightyBoard/shared/Pin.hh **** 	};
  62:src/MightyBoard/shared/Pin.hh **** 
  63:src/MightyBoard/shared/Pin.hh **** 	void /*Pin::*/setValueOff() const {
  64:src/MightyBoard/shared/Pin.hh **** 		// if (is_null)
  65:src/MightyBoard/shared/Pin.hh **** 		// 	return;
  66:src/MightyBoard/shared/Pin.hh **** 		// uint8_t oldSREG = SREG;
  67:src/MightyBoard/shared/Pin.hh **** 		// cli();
  68:src/MightyBoard/shared/Pin.hh **** //		PORTx &= pin_mask_inverted;
  69:src/MightyBoard/shared/Pin.hh **** 		GPIO_ClearValue(port_base, _BV(pin_index));
  70:src/MightyBoard/shared/Pin.hh **** 		// SREG = oldSREG;
  71:src/MightyBoard/shared/Pin.hh **** 	};
  72:src/MightyBoard/shared/Pin.hh **** 	// currently not used:
  73:src/MightyBoard/shared/Pin.hh **** 	//const uint8_t getPinIndex() const { return pin_index; }
  74:src/MightyBoard/shared/Pin.hh **** };
  75:src/MightyBoard/shared/Pin.hh **** 
  76:src/MightyBoard/shared/Pin.hh **** static const Pin NullPin(NullPort, 0);
 673              	 .loc 4 76 0
 674 0064 40F20000 	 movw r0,#:lower16:.LANCHOR7
 675 0068 C0F20000 	 movt r0,#:upper16:.LANCHOR7
 676 006c 2146     	 mov r1,r4
 677 006e 4FF00002 	 mov r2,#0
 678 0072 FFF7FEFF 	 bl _ZN3PinC1ERK7LPCPorth
 679              	.LBE63:
 680              	.LBE62:
 681              	 .loc 3 139 0
 682 0076 10BD     	 pop {r4,pc}
 683              	 .cfi_endproc
 684              	.LFE103:
 686              	 .section .init_array,"aw",%init_array
 687              	 .align 2
 688 0000 00000000 	 .word _GLOBAL__sub_I__ZN13ExtruderBoardC2Eh3PinS0_S0_t(target1)
 689              	 .global _ZTV22ExtruderHeatingElement
 690              	 .weak _ZTV14HeatingElement
 691              	 .section .rodata._ZTV14HeatingElement,"aG",%progbits,_ZTV14HeatingElement,comdat
 692              	 .align 3
 695              	_ZTV14HeatingElement:
 696 0000 00000000 	 .word 0
 697 0004 00000000 	 .word 0
 698 0008 00000000 	 .word _ZN14HeatingElementD1Ev
 699 000c 00000000 	 .word _ZN14HeatingElementD0Ev
 700 0010 00000000 	 .word __cxa_pure_virtual
 701              	 .weak _ZN14HeatingElementD1Ev
 702              	 .thumb_set _ZN14HeatingElementD1Ev,_ZN14HeatingElementD2Ev
 703              	 .weak _ZN22ExtruderHeatingElementD1Ev
 704              	 .thumb_set _ZN22ExtruderHeatingElementD1Ev,_ZN22ExtruderHeatingElementD2Ev
 705              	 .global _ZN22ExtruderHeatingElementC1Eh
 706              	 .thumb_set _ZN22ExtruderHeatingElementC1Eh,_ZN22ExtruderHeatingElementC2Eh
 707              	 .global _ZN13ExtruderBoardC1Eh3PinS0_S0_t
 708              	 .thumb_set _ZN13ExtruderBoardC1Eh3PinS0_S0_t,_ZN13ExtruderBoardC2Eh3PinS0_S0_t
 709 0014 00000000 	 .section .bss._ZL5Port0,"aw",%nobits
 710              	 .align 2
 711              	 .set .LANCHOR2,.+0
 714              	_ZL5Port0:
 715 0000 00       	 .space 1
 716 0001 000000   	 .section .rodata._ZTV22ExtruderHeatingElement,"a",%progbits
 717              	 .align 3
 718              	 .set .LANCHOR0,.+0
 721              	_ZTV22ExtruderHeatingElement:
 722 0000 00000000 	 .word 0
 723 0004 00000000 	 .word 0
 724 0008 00000000 	 .word _ZN22ExtruderHeatingElementD1Ev
 725 000c 00000000 	 .word _ZN22ExtruderHeatingElementD0Ev
 726 0010 00000000 	 .word _ZN22ExtruderHeatingElement17setHeatingElementEh
 727 0014 00000000 	 .section .bss._ZL5Port2,"aw",%nobits
 728              	 .align 2
 729              	 .set .LANCHOR1,.+0
 732              	_ZL5Port2:
 733 0000 00       	 .space 1
 734 0001 000000   	 .section .bss._ZL5Port1,"aw",%nobits
 735              	 .align 2
 736              	 .set .LANCHOR3,.+0
 739              	_ZL5Port1:
 740 0000 00       	 .space 1
 741 0001 000000   	 .section .bss._ZL5Port4,"aw",%nobits
 742              	 .align 2
 743              	 .set .LANCHOR5,.+0
 746              	_ZL5Port4:
 747 0000 00       	 .space 1
 748 0001 000000   	 .section .bss._ZL5Port3,"aw",%nobits
 749              	 .align 2
 750              	 .set .LANCHOR4,.+0
 753              	_ZL5Port3:
 754 0000 00       	 .space 1
 755 0001 000000   	 .section .rodata.str1.4,"aMS",%progbits,1
 756              	 .align 2
 757              	.LC0:
 758 0000 45787472 	 .ascii "ExtruderBoard::reset() (%s:%d)\012\000"
 758      75646572 
 758      426F6172 
 758      643A3A72 
 758      65736574 
 759              	.LC1:
 760 0020 7372632F 	 .ascii "src/MightyBoard/Motherboard/ExtruderBoard.cc\000"
 760      4D696768 
 760      7479426F 
 760      6172642F 
 760      4D6F7468 
 761 004d 000000   	 .section .bss._ZL8NullPort,"aw",%nobits
 762              	 .align 2
 763              	 .set .LANCHOR6,.+0
 766              	_ZL8NullPort:
 767 0000 00       	 .space 1
 768 0001 000000   	 .section .bss._ZL7NullPin,"aw",%nobits
 769              	 .align 2
 770              	 .set .LANCHOR7,.+0
 773              	_ZL7NullPin:
 774 0000 00000000 	 .space 5
 774      00
 775 0005 000000   	 .text
 776              	.Letext0:
 777              	 .file 6 "c:\\program files\\codesourcery\\sourcery_codebench_lite_for_arm_eabi\\bin\\../lib/gcc/arm-none-eabi/4.6.3/../../../../arm-none-eabi/include/stdint.h"
 778              	 .file 7 "src/MightyBoard/shared/TemperatureSensor.hh"
 779              	 .file 8 "src/MightyBoard/Motherboard/lib/include/lpc_types.h"
 780              	 .file 9 "src/MightyBoard/Motherboard/system/LPC17xx.h"
 781              	 .file 10 "src/MightyBoard/shared/PID.hh"
 782              	 .file 11 "src/MightyBoard/shared/Types.hh"
 783              	 .file 12 "src/MightyBoard/shared/Timeout.hh"
 784              	 .file 13 "src/MightyBoard/shared/Heater.hh"
 785              	 .file 14 "src/MightyBoard/Motherboard/EepromMap.hh"
 786              	 .file 15 "src/MightyBoard/shared/CoolingFan.hh"
 787              	 .file 16 "src/MightyBoard/shared/Thermistor.hh"
 788              	 .file 17 "src/MightyBoard/Motherboard/system/core_cm3.h"