   1              	 .syntax unified
   2              	 .cpu cortex-m3
   3              	 .fpu softvfp
   4              	 .eabi_attribute 20,1
   5              	 .eabi_attribute 21,1
   6              	 .eabi_attribute 23,3
   7              	 .eabi_attribute 24,1
   8              	 .eabi_attribute 25,1
   9              	 .eabi_attribute 26,1
  10              	 .eabi_attribute 30,1
  11              	 .eabi_attribute 34,1
  12              	 .eabi_attribute 18,4
  13              	 .thumb
  14              	 .file "Thermistor.cc"
  15              	 .text
  16              	.Ltext0:
  17              	 .cfi_sections .debug_frame
  18              	 .section .text._ZN17TemperatureSensorD2Ev,"axG",%progbits,_ZN17TemperatureSensorD5Ev,comdat
  19              	 .align 2
  20              	 .weak _ZN17TemperatureSensorD2Ev
  21              	 .thumb
  22              	 .thumb_func
  24              	_ZN17TemperatureSensorD2Ev:
  25              	.LFB1:
  26              	 .file 1 "src/MightyBoard/shared/TemperatureSensor.hh"
   1:src/MightyBoard/shared/TemperatureSensor.hh **** /*
   2:src/MightyBoard/shared/TemperatureSensor.hh ****  * Copyright 2010 by Adam Mayer	 <adam@makerbot.com>
   3:src/MightyBoard/shared/TemperatureSensor.hh ****  *
   4:src/MightyBoard/shared/TemperatureSensor.hh ****  * This program is free software: you can redistribute it and/or modify
   5:src/MightyBoard/shared/TemperatureSensor.hh ****  * it under the terms of the GNU General Public License as published by
   6:src/MightyBoard/shared/TemperatureSensor.hh ****  * the Free Software Foundation, either version 3 of the License, or
   7:src/MightyBoard/shared/TemperatureSensor.hh ****  * (at your option) any later version.
   8:src/MightyBoard/shared/TemperatureSensor.hh ****  *
   9:src/MightyBoard/shared/TemperatureSensor.hh ****  * This program is distributed in the hope that it will be useful,
  10:src/MightyBoard/shared/TemperatureSensor.hh ****  * but WITHOUT ANY WARRANTY; without even the implied warranty of
  11:src/MightyBoard/shared/TemperatureSensor.hh ****  * MERCHANTABILITY or FITNESS FOR A PARTICULAR PURPOSE.  See the
  12:src/MightyBoard/shared/TemperatureSensor.hh ****  * GNU General Public License for more details.
  13:src/MightyBoard/shared/TemperatureSensor.hh ****  *
  14:src/MightyBoard/shared/TemperatureSensor.hh ****  * You should have received a copy of the GNU General Public License
  15:src/MightyBoard/shared/TemperatureSensor.hh ****  * along with this program.  If not, see <http://www.gnu.org/licenses/>
  16:src/MightyBoard/shared/TemperatureSensor.hh ****  */
  17:src/MightyBoard/shared/TemperatureSensor.hh **** 
  18:src/MightyBoard/shared/TemperatureSensor.hh **** #ifndef TEMPERATURE_HH_
  19:src/MightyBoard/shared/TemperatureSensor.hh **** #define TEMPERATURE_HH_
  20:src/MightyBoard/shared/TemperatureSensor.hh **** 
  21:src/MightyBoard/shared/TemperatureSensor.hh **** #include <stdint.h>
  22:src/MightyBoard/shared/TemperatureSensor.hh **** 
  23:src/MightyBoard/shared/TemperatureSensor.hh **** /// Flag specifying that the temperature reading is invalid.
  24:src/MightyBoard/shared/TemperatureSensor.hh **** #define BAD_TEMPERATURE 1024
  25:src/MightyBoard/shared/TemperatureSensor.hh **** 
  26:src/MightyBoard/shared/TemperatureSensor.hh **** /// The temperature sensor interface is a standard interface used to communicate with
  27:src/MightyBoard/shared/TemperatureSensor.hh **** /// things that can sense temperatures.
  28:src/MightyBoard/shared/TemperatureSensor.hh **** /// \ingroup SoftwareLibraries
  29:src/MightyBoard/shared/TemperatureSensor.hh **** class TemperatureSensor {
  30:src/MightyBoard/shared/TemperatureSensor.hh **** protected:
  31:src/MightyBoard/shared/TemperatureSensor.hh ****         /// The last temperature reading from the sensor, in degrees Celcius, or
  32:src/MightyBoard/shared/TemperatureSensor.hh ****         /// #BAD_TEMPERATURE if the last reading is invalid.
  33:src/MightyBoard/shared/TemperatureSensor.hh **** 	volatile uint16_t current_temp;
  34:src/MightyBoard/shared/TemperatureSensor.hh **** public:
  35:src/MightyBoard/shared/TemperatureSensor.hh **** 	virtual ~TemperatureSensor(){};
  27              	 .loc 1 35 0
  28              	 .cfi_startproc
  29              	 
  30              	 
  31              	 
  32              	.LVL0:
  33              	.LBB133:
  34              	 .loc 1 35 0
  35 0000 014B     	 ldr r3,.L3
  36 0002 0360     	 str r3,[r0,#0]
  37              	.LBE133:
  38 0004 7047     	 bx lr
  39              	.L4:
  40 0006 00BF     	 .align 2
  41              	.L3:
  42 0008 08000000 	 .word _ZTV17TemperatureSensor+8
  43              	 .cfi_endproc
  44              	.LFE1:
  46              	 .section .text._ZN17TemperatureSensor4initEv,"axG",%progbits,_ZN17TemperatureSensor4initEv,comdat
  47              	 .align 2
  48              	 .weak _ZN17TemperatureSensor4initEv
  49              	 .thumb
  50              	 .thumb_func
  52              	_ZN17TemperatureSensor4initEv:
  53              	.LFB5:
  36:src/MightyBoard/shared/TemperatureSensor.hh **** 	enum SensorState {
  37:src/MightyBoard/shared/TemperatureSensor.hh **** 		SS_OK,              ///< Temperature measured correctly
  38:src/MightyBoard/shared/TemperatureSensor.hh **** 		SS_ADC_BUSY,        ///< Temperature failed to update because ADC is busy
  39:src/MightyBoard/shared/TemperatureSensor.hh **** 		SS_ADC_WAITING,     ///< Temperature failed to update, still waiting for ADC
  40:src/MightyBoard/shared/TemperatureSensor.hh **** 		SS_ERROR_UNPLUGGED  ///< Temperature failed to update, the sensor is unplugged.
  41:src/MightyBoard/shared/TemperatureSensor.hh **** 	};
  42:src/MightyBoard/shared/TemperatureSensor.hh **** 
  43:src/MightyBoard/shared/TemperatureSensor.hh **** 
  44:src/MightyBoard/shared/TemperatureSensor.hh **** 	/// Get the last read temperature from the sensor. Note that you need to call
  45:src/MightyBoard/shared/TemperatureSensor.hh **** 	/// update() at least once for this to return good data.
  46:src/MightyBoard/shared/TemperatureSensor.hh **** 	/// \return The current temperature, in degrees Celcius, or #BAD_TEMPERATURE if the
  47:src/MightyBoard/shared/TemperatureSensor.hh **** 	///         last read failed.
  48:src/MightyBoard/shared/TemperatureSensor.hh **** 	int16_t getTemperature() const { return current_temp; }
  49:src/MightyBoard/shared/TemperatureSensor.hh **** 
  50:src/MightyBoard/shared/TemperatureSensor.hh **** 	/// Initialize the temperature sensor hardware. Must be called before the temperature
  51:src/MightyBoard/shared/TemperatureSensor.hh **** 	/// sensor can be used.
  52:src/MightyBoard/shared/TemperatureSensor.hh **** 	virtual void init() {}
  54              	 .loc 1 52 0
  55              	 .cfi_startproc
  56              	 
  57              	 
  58              	 
  59              	.LVL1:
  60              	 .loc 1 52 0
  61 0000 7047     	 bx lr
  62              	 .cfi_endproc
  63              	.LFE5:
  65 0002 00BF     	 .section .text._ZN10ThermistorD2Ev,"axG",%progbits,_ZN10ThermistorD5Ev,comdat
  66              	 .align 2
  67              	 .weak _ZN10ThermistorD2Ev
  68              	 .thumb
  69              	 .thumb_func
  71              	_ZN10ThermistorD2Ev:
  72              	.LFB455:
  73              	 .file 2 "src/MightyBoard/shared/Thermistor.hh"
   1:src/MightyBoard/shared/Thermistor.hh **** /*
   2:src/MightyBoard/shared/Thermistor.hh ****  * Copyright 2010 by Adam Mayer	 <adam@makerbot.com>
   3:src/MightyBoard/shared/Thermistor.hh ****  *
   4:src/MightyBoard/shared/Thermistor.hh ****  * This program is free software: you can redistribute it and/or modify
   5:src/MightyBoard/shared/Thermistor.hh ****  * it under the terms of the GNU General Public License as published by
   6:src/MightyBoard/shared/Thermistor.hh ****  * the Free Software Foundation, either version 3 of the License, or
   7:src/MightyBoard/shared/Thermistor.hh ****  * (at your option) any later version.
   8:src/MightyBoard/shared/Thermistor.hh ****  *
   9:src/MightyBoard/shared/Thermistor.hh ****  * This program is distributed in the hope that it will be useful,
  10:src/MightyBoard/shared/Thermistor.hh ****  * but WITHOUT ANY WARRANTY; without even the implied warranty of
  11:src/MightyBoard/shared/Thermistor.hh ****  * MERCHANTABILITY or FITNESS FOR A PARTICULAR PURPOSE.  See the
  12:src/MightyBoard/shared/Thermistor.hh ****  * GNU General Public License for more details.
  13:src/MightyBoard/shared/Thermistor.hh ****  *
  14:src/MightyBoard/shared/Thermistor.hh ****  * You should have received a copy of the GNU General Public License
  15:src/MightyBoard/shared/Thermistor.hh ****  * along with this program.  If not, see <http://www.gnu.org/licenses/>
  16:src/MightyBoard/shared/Thermistor.hh ****  */
  17:src/MightyBoard/shared/Thermistor.hh **** 
  18:src/MightyBoard/shared/Thermistor.hh **** #ifndef THERMISTOR_HH_
  19:src/MightyBoard/shared/Thermistor.hh **** #define THERMISTOR_HH_
  20:src/MightyBoard/shared/Thermistor.hh **** 
  21:src/MightyBoard/shared/Thermistor.hh **** #include "TemperatureSensor.hh"
  22:src/MightyBoard/shared/Thermistor.hh **** 
  23:src/MightyBoard/shared/Thermistor.hh **** #define THERM_TABLE_SIZE 31
  24:src/MightyBoard/shared/Thermistor.hh **** #define SAMPLE_COUNT 9
  25:src/MightyBoard/shared/Thermistor.hh **** 
  26:src/MightyBoard/shared/Thermistor.hh **** /// The thermistor module provides a driver to read the value of a thermistor connected
  27:src/MightyBoard/shared/Thermistor.hh **** /// to an analog pin, and convert it to a corrected temperature in degress Celcius.
  28:src/MightyBoard/shared/Thermistor.hh **** /// \ingroup SoftwareLibraries
  29:src/MightyBoard/shared/Thermistor.hh **** class Thermistor : public TemperatureSensor {
  74              	 .loc 2 29 0
  75              	 .cfi_startproc
  76              	 
  77              	 
  78              	 
  79              	.LVL2:
  80              	.LBB134:
  81              	.LBB135:
  82              	.LBB136:
  83              	.LBB137:
  35:src/MightyBoard/shared/TemperatureSensor.hh **** 	virtual ~TemperatureSensor(){};
  84              	 .loc 1 35 0
  85 0000 014B     	 ldr r3,.L9
  86 0002 0360     	 str r3,[r0,#0]
  87              	.LBE137:
  88              	.LBE136:
  89              	.LBE135:
  90              	.LBE134:
  91              	 .loc 2 29 0
  92 0004 7047     	 bx lr
  93              	.L10:
  94 0006 00BF     	 .align 2
  95              	.L9:
  96 0008 08000000 	 .word _ZTV17TemperatureSensor+8
  97              	 .cfi_endproc
  98              	.LFE455:
 100              	 .section .text._ZN10ThermistorD0Ev,"axG",%progbits,_ZN10ThermistorD5Ev,comdat
 101              	 .align 2
 102              	 .weak _ZN10ThermistorD0Ev
 103              	 .thumb
 104              	 .thumb_func
 106              	_ZN10ThermistorD0Ev:
 107              	.LFB457:
 108              	 .loc 2 29 0
 109              	 .cfi_startproc
 110              	 
 111              	 
 112              	.LVL3:
 113 0000 10B5     	 push {r4,lr}
 114              	.LCFI0:
 115              	 .cfi_def_cfa_offset 8
 116              	 .cfi_offset 14,-4
 117              	 .cfi_offset 4,-8
 118 0002 0446     	 mov r4,r0
 119              	.LVL4:
 120              	.LBB138:
 121              	.LBB139:
 122              	.LBB140:
 123              	.LBB141:
 124              	.LBB142:
 125              	.LBB143:
  35:src/MightyBoard/shared/TemperatureSensor.hh **** 	virtual ~TemperatureSensor(){};
 126              	 .loc 1 35 0
 127 0004 024B     	 ldr r3,.L15
 128 0006 0360     	 str r3,[r0,#0]
 129              	.LBE143:
 130              	.LBE142:
 131              	.LBE141:
 132              	.LBE140:
 133              	.LBE139:
 134              	.LBE138:
 135              	 .loc 2 29 0
 136 0008 FFF7FEFF 	 bl _ZdlPv
 137              	.LVL5:
 138 000c 2046     	 mov r0,r4
 139 000e 10BD     	 pop {r4,pc}
 140              	.L16:
 141              	 .align 2
 142              	.L15:
 143 0010 08000000 	 .word _ZTV17TemperatureSensor+8
 144              	 .cfi_endproc
 145              	.LFE457:
 147              	 .section .text._ZN17TemperatureSensorD0Ev,"axG",%progbits,_ZN17TemperatureSensorD5Ev,comdat
 148              	 .align 2
 149              	 .weak _ZN17TemperatureSensorD0Ev
 150              	 .thumb
 151              	 .thumb_func
 153              	_ZN17TemperatureSensorD0Ev:
 154              	.LFB3:
  35:src/MightyBoard/shared/TemperatureSensor.hh **** 	virtual ~TemperatureSensor(){};
 155              	 .loc 1 35 0
 156              	 .cfi_startproc
 157              	 
 158              	 
 159              	.LVL6:
 160 0000 10B5     	 push {r4,lr}
 161              	.LCFI1:
 162              	 .cfi_def_cfa_offset 8
 163              	 .cfi_offset 14,-4
 164              	 .cfi_offset 4,-8
 165 0002 0446     	 mov r4,r0
 166              	.LVL7:
 167              	.LBB144:
 168              	.LBB145:
 169              	.LBB146:
  35:src/MightyBoard/shared/TemperatureSensor.hh **** 	virtual ~TemperatureSensor(){};
 170              	 .loc 1 35 0
 171 0004 024B     	 ldr r3,.L20
 172 0006 0360     	 str r3,[r0,#0]
 173              	.LBE146:
 174              	.LBE145:
 175              	.LBE144:
 176 0008 FFF7FEFF 	 bl _ZdlPv
 177              	.LVL8:
 178 000c 2046     	 mov r0,r4
 179 000e 10BD     	 pop {r4,pc}
 180              	.L21:
 181              	 .align 2
 182              	.L20:
 183 0010 08000000 	 .word _ZTV17TemperatureSensor+8
 184              	 .cfi_endproc
 185              	.LFE3:
 187              	 .section .text._ZN10Thermistor4initEv,"ax",%progbits
 188              	 .align 2
 189              	 .global _ZN10Thermistor4initEv
 190              	 .thumb
 191              	 .thumb_func
 193              	_ZN10Thermistor4initEv:
 194              	.LFB426:
 195              	 .file 3 "src/MightyBoard/shared/Thermistor.cc"
   1:src/MightyBoard/shared/Thermistor.cc **** /*
   2:src/MightyBoard/shared/Thermistor.cc ****  * Copyright 2010 by Adam Mayer	 <adam@makerbot.com>
   3:src/MightyBoard/shared/Thermistor.cc ****  *
   4:src/MightyBoard/shared/Thermistor.cc ****  * This program is free software: you can redistribute it and/or modify
   5:src/MightyBoard/shared/Thermistor.cc ****  * it under the terms of the GNU General Public License as published by
   6:src/MightyBoard/shared/Thermistor.cc ****  * the Free Software Foundation, either version 3 of the License, or
   7:src/MightyBoard/shared/Thermistor.cc ****  * (at your option) any later version.
   8:src/MightyBoard/shared/Thermistor.cc ****  *
   9:src/MightyBoard/shared/Thermistor.cc ****  * This program is distributed in the hope that it will be useful,
  10:src/MightyBoard/shared/Thermistor.cc ****  * but WITHOUT ANY WARRANTY; without even the implied warranty of
  11:src/MightyBoard/shared/Thermistor.cc ****  * MERCHANTABILITY or FITNESS FOR A PARTICULAR PURPOSE.  See the
  12:src/MightyBoard/shared/Thermistor.cc ****  * GNU General Public License for more details.
  13:src/MightyBoard/shared/Thermistor.cc ****  *
  14:src/MightyBoard/shared/Thermistor.cc ****  * You should have received a copy of the GNU General Public License
  15:src/MightyBoard/shared/Thermistor.cc ****  * along with this program.  If not, see <http://www.gnu.org/licenses/>
  16:src/MightyBoard/shared/Thermistor.cc ****  */
  17:src/MightyBoard/shared/Thermistor.cc **** 
  18:src/MightyBoard/shared/Thermistor.cc **** #include "Thermistor.hh"
  19:src/MightyBoard/shared/Thermistor.cc **** #include "ThermistorTable.hh"
  20:src/MightyBoard/shared/Thermistor.cc **** #include "AnalogPin.hh"
  21:src/MightyBoard/shared/Thermistor.cc **** //#include <util/atomic.h>
  22:src/MightyBoard/shared/Thermistor.cc **** 
  23:src/MightyBoard/shared/Thermistor.cc **** #include <algorithm>
  24:src/MightyBoard/shared/Thermistor.cc **** 
  25:src/MightyBoard/shared/Thermistor.cc **** extern "C" {
  26:src/MightyBoard/shared/Thermistor.cc **** 	#include "comm.h"
  27:src/MightyBoard/shared/Thermistor.cc **** }
  28:src/MightyBoard/shared/Thermistor.cc **** 
  29:src/MightyBoard/shared/Thermistor.cc **** struct ThermTableEntry {
  30:src/MightyBoard/shared/Thermistor.cc ****         int16_t adc;
  31:src/MightyBoard/shared/Thermistor.cc ****         int16_t celsius;
  32:src/MightyBoard/shared/Thermistor.cc **** } __attribute__ ((packed));
  33:src/MightyBoard/shared/Thermistor.cc **** 
  34:src/MightyBoard/shared/Thermistor.cc **** 
  35:src/MightyBoard/shared/Thermistor.cc **** Thermistor::Thermistor(uint8_t analog_pin_in, uint8_t table_index_in) :
  36:src/MightyBoard/shared/Thermistor.cc ****     analog_pin(analog_pin_in),
  37:src/MightyBoard/shared/Thermistor.cc ****     next_sample(0),
  38:src/MightyBoard/shared/Thermistor.cc ****     raw_valid(false),
  39:src/MightyBoard/shared/Thermistor.cc ****     table_index(table_index_in)
  40:src/MightyBoard/shared/Thermistor.cc **** {
  41:src/MightyBoard/shared/Thermistor.cc ****         for (int i = 0; i < SAMPLE_COUNT; i++) {
  42:src/MightyBoard/shared/Thermistor.cc ****             sample_buffer[i] = 0;
  43:src/MightyBoard/shared/Thermistor.cc ****         }
  44:src/MightyBoard/shared/Thermistor.cc **** }
  45:src/MightyBoard/shared/Thermistor.cc **** 
  46:src/MightyBoard/shared/Thermistor.cc **** void Thermistor::init() {
 196              	 .loc 3 46 0
 197              	 .cfi_startproc
 198              	 
 199              	 
 200              	.LVL9:
 201 0000 08B5     	 push {r3,lr}
 202              	.LCFI2:
 203              	 .cfi_def_cfa_offset 8
 204              	 .cfi_offset 14,-4
 205              	 .cfi_offset 3,-8
  47:src/MightyBoard/shared/Thermistor.cc ****   current_temp = 0;
 206              	 .loc 3 47 0
 207 0002 4FF00003 	 mov r3,#0
 208 0006 8380     	 strh r3,[r0,#4]
  48:src/MightyBoard/shared/Thermistor.cc ****   if (analog_pin==0)
 209              	 .loc 3 48 0
 210 0008 8379     	 ldrb r3,[r0,#6]
 211 000a 1BB9     	 cbnz r3,.L23
  49:src/MightyBoard/shared/Thermistor.cc **** 	  analog_pin_out = 26;
 212              	 .loc 3 49 0
 213 000c 4FF01A03 	 mov r3,#26
 214 0010 C371     	 strb r3,[r0,#7]
 215 0012 03E0     	 b .L24
 216              	.L23:
  50:src/MightyBoard/shared/Thermistor.cc ****   if (analog_pin==1)
 217              	 .loc 3 50 0
 218 0014 012B     	 cmp r3,#1
  51:src/MightyBoard/shared/Thermistor.cc **** 	  analog_pin_out = 25;
 219              	 .loc 3 51 0
 220 0016 04BF     	 itt eq
 221 0018 1923     	 moveq r3,#25
 222 001a C371     	 strbeq r3,[r0,#7]
 223              	.L24:
  52:src/MightyBoard/shared/Thermistor.cc **** 	initAnalogPin(analog_pin_out);
 224              	 .loc 3 52 0
 225 001c C079     	 ldrb r0,[r0,#7]
 226              	.LVL10:
 227 001e FFF7FEFF 	 bl _Z13initAnalogPinh
  53:src/MightyBoard/shared/Thermistor.cc **** }
 228              	 .loc 3 53 0
 229 0022 08BD     	 pop {r3,pc}
 230              	 .cfi_endproc
 231              	.LFE426:
 233              	 .section .text._ZN10ThermistorC2Ehh,"ax",%progbits
 234              	 .align 2
 235              	 .global _ZN10ThermistorC2Ehh
 236              	 .thumb
 237              	 .thumb_func
 239              	_ZN10ThermistorC2Ehh:
 240              	.LFB424:
  35:src/MightyBoard/shared/Thermistor.cc **** Thermistor::Thermistor(uint8_t analog_pin_in, uint8_t table_index_in) :
 241              	 .loc 3 35 0
 242              	 .cfi_startproc
 243              	 
 244              	 
 245              	 
 246              	.LVL11:
 247              	.LBB147:
  39:src/MightyBoard/shared/Thermistor.cc ****     table_index(table_index_in)
 248              	 .loc 3 39 0
 249 0000 094B     	 ldr r3,.L30
 250 0002 0360     	 str r3,[r0,#0]
 251 0004 8171     	 strb r1,[r0,#6]
 252 0006 4FF00003 	 mov r3,#0
 253 000a 8372     	 strb r3,[r0,#10]
 254 000c 8377     	 strb r3,[r0,#30]
 255 000e C277     	 strb r2,[r0,#31]
 256              	.LVL12:
  35:src/MightyBoard/shared/Thermistor.cc **** Thermistor::Thermistor(uint8_t analog_pin_in, uint8_t table_index_in) :
 257              	 .loc 3 35 0
 258 0010 00F10A02 	 add r2,r0,#10
 259              	.LVL13:
 260              	.LBE147:
 261 0014 4FF00903 	 mov r3,#9
 262              	.LBB149:
 263              	.LBB148:
  42:src/MightyBoard/shared/Thermistor.cc ****             sample_buffer[i] = 0;
 264              	 .loc 3 42 0
 265 0018 4FF00001 	 mov r1,#0
 266              	.LVL14:
 267              	.L27:
  42:src/MightyBoard/shared/Thermistor.cc ****             sample_buffer[i] = 0;
 268              	 .loc 3 42 0 is_stmt 0 discriminator 2
 269 001c 22F8021F 	 strh r1,[r2,#2]!
  41:src/MightyBoard/shared/Thermistor.cc ****         for (int i = 0; i < SAMPLE_COUNT; i++) {
 270              	 .loc 3 41 0 is_stmt 1 discriminator 2
 271 0020 013B     	 subs r3,r3,#1
 272 0022 FBD1     	 bne .L27
 273              	.LBE148:
 274              	.LBE149:
  44:src/MightyBoard/shared/Thermistor.cc **** }
 275              	 .loc 3 44 0
 276 0024 7047     	 bx lr
 277              	.L31:
 278 0026 00BF     	 .align 2
 279              	.L30:
 280 0028 08000000 	 .word .LANCHOR0+8
 281              	 .cfi_endproc
 282              	.LFE424:
 284              	 .section .text._ZSt19__move_median_firstIPmEvT_S1_S1_,"axG",%progbits,_ZSt19__move_median_firstIPmEvT_S1_S1_,comdat
 285              	 .align 2
 286              	 .weak _ZSt19__move_median_firstIPmEvT_S1_S1_
 287              	 .thumb
 288              	 .thumb_func
 290              	_ZSt19__move_median_firstIPmEvT_S1_S1_:
 291              	.LFB437:
 292              	 .file 4 "c:\\program files\\codesourcery\\sourcery_codebench_lite_for_arm_eabi\\bin\\../lib/gcc/arm-none-eabi/4.6.3/../../../../arm-none-eabi/include/c++/4.6.3/bits/stl_algo.h"
   1:c:\program files\codesourcery\sourcery_codebench_lite_for_arm_eabi\bin\../lib/gcc/arm-none-eabi/4.6.3/../../../../arm-none-eabi/include/c++/4.6.3/bits\stl_algo.h **** // Algorithm implementation -*- C++ -*-
   2:c:\program files\codesourcery\sourcery_codebench_lite_for_arm_eabi\bin\../lib/gcc/arm-none-eabi/4.6.3/../../../../arm-none-eabi/include/c++/4.6.3/bits\stl_algo.h **** 
   3:c:\program files\codesourcery\sourcery_codebench_lite_for_arm_eabi\bin\../lib/gcc/arm-none-eabi/4.6.3/../../../../arm-none-eabi/include/c++/4.6.3/bits\stl_algo.h **** // Copyright (C) 2001, 2002, 2003, 2004, 2005, 2006, 2007, 2008, 2009,
   4:c:\program files\codesourcery\sourcery_codebench_lite_for_arm_eabi\bin\../lib/gcc/arm-none-eabi/4.6.3/../../../../arm-none-eabi/include/c++/4.6.3/bits\stl_algo.h **** // 2010, 2011
   5:c:\program files\codesourcery\sourcery_codebench_lite_for_arm_eabi\bin\../lib/gcc/arm-none-eabi/4.6.3/../../../../arm-none-eabi/include/c++/4.6.3/bits\stl_algo.h **** // Free Software Foundation, Inc.
   6:c:\program files\codesourcery\sourcery_codebench_lite_for_arm_eabi\bin\../lib/gcc/arm-none-eabi/4.6.3/../../../../arm-none-eabi/include/c++/4.6.3/bits\stl_algo.h **** //
   7:c:\program files\codesourcery\sourcery_codebench_lite_for_arm_eabi\bin\../lib/gcc/arm-none-eabi/4.6.3/../../../../arm-none-eabi/include/c++/4.6.3/bits\stl_algo.h **** // This file is part of the GNU ISO C++ Library.  This library is free
   8:c:\program files\codesourcery\sourcery_codebench_lite_for_arm_eabi\bin\../lib/gcc/arm-none-eabi/4.6.3/../../../../arm-none-eabi/include/c++/4.6.3/bits\stl_algo.h **** // software; you can redistribute it and/or modify it under the
   9:c:\program files\codesourcery\sourcery_codebench_lite_for_arm_eabi\bin\../lib/gcc/arm-none-eabi/4.6.3/../../../../arm-none-eabi/include/c++/4.6.3/bits\stl_algo.h **** // terms of the GNU General Public License as published by the
  10:c:\program files\codesourcery\sourcery_codebench_lite_for_arm_eabi\bin\../lib/gcc/arm-none-eabi/4.6.3/../../../../arm-none-eabi/include/c++/4.6.3/bits\stl_algo.h **** // Free Software Foundation; either version 3, or (at your option)
  11:c:\program files\codesourcery\sourcery_codebench_lite_for_arm_eabi\bin\../lib/gcc/arm-none-eabi/4.6.3/../../../../arm-none-eabi/include/c++/4.6.3/bits\stl_algo.h **** // any later version.
  12:c:\program files\codesourcery\sourcery_codebench_lite_for_arm_eabi\bin\../lib/gcc/arm-none-eabi/4.6.3/../../../../arm-none-eabi/include/c++/4.6.3/bits\stl_algo.h **** 
  13:c:\program files\codesourcery\sourcery_codebench_lite_for_arm_eabi\bin\../lib/gcc/arm-none-eabi/4.6.3/../../../../arm-none-eabi/include/c++/4.6.3/bits\stl_algo.h **** // This library is distributed in the hope that it will be useful,
  14:c:\program files\codesourcery\sourcery_codebench_lite_for_arm_eabi\bin\../lib/gcc/arm-none-eabi/4.6.3/../../../../arm-none-eabi/include/c++/4.6.3/bits\stl_algo.h **** // but WITHOUT ANY WARRANTY; without even the implied warranty of
  15:c:\program files\codesourcery\sourcery_codebench_lite_for_arm_eabi\bin\../lib/gcc/arm-none-eabi/4.6.3/../../../../arm-none-eabi/include/c++/4.6.3/bits\stl_algo.h **** // MERCHANTABILITY or FITNESS FOR A PARTICULAR PURPOSE.  See the
  16:c:\program files\codesourcery\sourcery_codebench_lite_for_arm_eabi\bin\../lib/gcc/arm-none-eabi/4.6.3/../../../../arm-none-eabi/include/c++/4.6.3/bits\stl_algo.h **** // GNU General Public License for more details.
  17:c:\program files\codesourcery\sourcery_codebench_lite_for_arm_eabi\bin\../lib/gcc/arm-none-eabi/4.6.3/../../../../arm-none-eabi/include/c++/4.6.3/bits\stl_algo.h **** 
  18:c:\program files\codesourcery\sourcery_codebench_lite_for_arm_eabi\bin\../lib/gcc/arm-none-eabi/4.6.3/../../../../arm-none-eabi/include/c++/4.6.3/bits\stl_algo.h **** // Under Section 7 of GPL version 3, you are granted additional
  19:c:\program files\codesourcery\sourcery_codebench_lite_for_arm_eabi\bin\../lib/gcc/arm-none-eabi/4.6.3/../../../../arm-none-eabi/include/c++/4.6.3/bits\stl_algo.h **** // permissions described in the GCC Runtime Library Exception, version
  20:c:\program files\codesourcery\sourcery_codebench_lite_for_arm_eabi\bin\../lib/gcc/arm-none-eabi/4.6.3/../../../../arm-none-eabi/include/c++/4.6.3/bits\stl_algo.h **** // 3.1, as published by the Free Software Foundation.
  21:c:\program files\codesourcery\sourcery_codebench_lite_for_arm_eabi\bin\../lib/gcc/arm-none-eabi/4.6.3/../../../../arm-none-eabi/include/c++/4.6.3/bits\stl_algo.h **** 
  22:c:\program files\codesourcery\sourcery_codebench_lite_for_arm_eabi\bin\../lib/gcc/arm-none-eabi/4.6.3/../../../../arm-none-eabi/include/c++/4.6.3/bits\stl_algo.h **** // You should have received a copy of the GNU General Public License and
  23:c:\program files\codesourcery\sourcery_codebench_lite_for_arm_eabi\bin\../lib/gcc/arm-none-eabi/4.6.3/../../../../arm-none-eabi/include/c++/4.6.3/bits\stl_algo.h **** // a copy of the GCC Runtime Library Exception along with this program;
  24:c:\program files\codesourcery\sourcery_codebench_lite_for_arm_eabi\bin\../lib/gcc/arm-none-eabi/4.6.3/../../../../arm-none-eabi/include/c++/4.6.3/bits\stl_algo.h **** // see the files COPYING3 and COPYING.RUNTIME respectively.  If not, see
  25:c:\program files\codesourcery\sourcery_codebench_lite_for_arm_eabi\bin\../lib/gcc/arm-none-eabi/4.6.3/../../../../arm-none-eabi/include/c++/4.6.3/bits\stl_algo.h **** // <http://www.gnu.org/licenses/>.
  26:c:\program files\codesourcery\sourcery_codebench_lite_for_arm_eabi\bin\../lib/gcc/arm-none-eabi/4.6.3/../../../../arm-none-eabi/include/c++/4.6.3/bits\stl_algo.h **** 
  27:c:\program files\codesourcery\sourcery_codebench_lite_for_arm_eabi\bin\../lib/gcc/arm-none-eabi/4.6.3/../../../../arm-none-eabi/include/c++/4.6.3/bits\stl_algo.h **** /*
  28:c:\program files\codesourcery\sourcery_codebench_lite_for_arm_eabi\bin\../lib/gcc/arm-none-eabi/4.6.3/../../../../arm-none-eabi/include/c++/4.6.3/bits\stl_algo.h ****  *
  29:c:\program files\codesourcery\sourcery_codebench_lite_for_arm_eabi\bin\../lib/gcc/arm-none-eabi/4.6.3/../../../../arm-none-eabi/include/c++/4.6.3/bits\stl_algo.h ****  * Copyright (c) 1994
  30:c:\program files\codesourcery\sourcery_codebench_lite_for_arm_eabi\bin\../lib/gcc/arm-none-eabi/4.6.3/../../../../arm-none-eabi/include/c++/4.6.3/bits\stl_algo.h ****  * Hewlett-Packard Company
  31:c:\program files\codesourcery\sourcery_codebench_lite_for_arm_eabi\bin\../lib/gcc/arm-none-eabi/4.6.3/../../../../arm-none-eabi/include/c++/4.6.3/bits\stl_algo.h ****  *
  32:c:\program files\codesourcery\sourcery_codebench_lite_for_arm_eabi\bin\../lib/gcc/arm-none-eabi/4.6.3/../../../../arm-none-eabi/include/c++/4.6.3/bits\stl_algo.h ****  * Permission to use, copy, modify, distribute and sell this software
  33:c:\program files\codesourcery\sourcery_codebench_lite_for_arm_eabi\bin\../lib/gcc/arm-none-eabi/4.6.3/../../../../arm-none-eabi/include/c++/4.6.3/bits\stl_algo.h ****  * and its documentation for any purpose is hereby granted without fee,
  34:c:\program files\codesourcery\sourcery_codebench_lite_for_arm_eabi\bin\../lib/gcc/arm-none-eabi/4.6.3/../../../../arm-none-eabi/include/c++/4.6.3/bits\stl_algo.h ****  * provided that the above copyright notice appear in all copies and
  35:c:\program files\codesourcery\sourcery_codebench_lite_for_arm_eabi\bin\../lib/gcc/arm-none-eabi/4.6.3/../../../../arm-none-eabi/include/c++/4.6.3/bits\stl_algo.h ****  * that both that copyright notice and this permission notice appear
  36:c:\program files\codesourcery\sourcery_codebench_lite_for_arm_eabi\bin\../lib/gcc/arm-none-eabi/4.6.3/../../../../arm-none-eabi/include/c++/4.6.3/bits\stl_algo.h ****  * in supporting documentation.  Hewlett-Packard Company makes no
  37:c:\program files\codesourcery\sourcery_codebench_lite_for_arm_eabi\bin\../lib/gcc/arm-none-eabi/4.6.3/../../../../arm-none-eabi/include/c++/4.6.3/bits\stl_algo.h ****  * representations about the suitability of this software for any
  38:c:\program files\codesourcery\sourcery_codebench_lite_for_arm_eabi\bin\../lib/gcc/arm-none-eabi/4.6.3/../../../../arm-none-eabi/include/c++/4.6.3/bits\stl_algo.h ****  * purpose.  It is provided "as is" without express or implied warranty.
  39:c:\program files\codesourcery\sourcery_codebench_lite_for_arm_eabi\bin\../lib/gcc/arm-none-eabi/4.6.3/../../../../arm-none-eabi/include/c++/4.6.3/bits\stl_algo.h ****  *
  40:c:\program files\codesourcery\sourcery_codebench_lite_for_arm_eabi\bin\../lib/gcc/arm-none-eabi/4.6.3/../../../../arm-none-eabi/include/c++/4.6.3/bits\stl_algo.h ****  *
  41:c:\program files\codesourcery\sourcery_codebench_lite_for_arm_eabi\bin\../lib/gcc/arm-none-eabi/4.6.3/../../../../arm-none-eabi/include/c++/4.6.3/bits\stl_algo.h ****  * Copyright (c) 1996
  42:c:\program files\codesourcery\sourcery_codebench_lite_for_arm_eabi\bin\../lib/gcc/arm-none-eabi/4.6.3/../../../../arm-none-eabi/include/c++/4.6.3/bits\stl_algo.h ****  * Silicon Graphics Computer Systems, Inc.
  43:c:\program files\codesourcery\sourcery_codebench_lite_for_arm_eabi\bin\../lib/gcc/arm-none-eabi/4.6.3/../../../../arm-none-eabi/include/c++/4.6.3/bits\stl_algo.h ****  *
  44:c:\program files\codesourcery\sourcery_codebench_lite_for_arm_eabi\bin\../lib/gcc/arm-none-eabi/4.6.3/../../../../arm-none-eabi/include/c++/4.6.3/bits\stl_algo.h ****  * Permission to use, copy, modify, distribute and sell this software
  45:c:\program files\codesourcery\sourcery_codebench_lite_for_arm_eabi\bin\../lib/gcc/arm-none-eabi/4.6.3/../../../../arm-none-eabi/include/c++/4.6.3/bits\stl_algo.h ****  * and its documentation for any purpose is hereby granted without fee,
  46:c:\program files\codesourcery\sourcery_codebench_lite_for_arm_eabi\bin\../lib/gcc/arm-none-eabi/4.6.3/../../../../arm-none-eabi/include/c++/4.6.3/bits\stl_algo.h ****  * provided that the above copyright notice appear in all copies and
  47:c:\program files\codesourcery\sourcery_codebench_lite_for_arm_eabi\bin\../lib/gcc/arm-none-eabi/4.6.3/../../../../arm-none-eabi/include/c++/4.6.3/bits\stl_algo.h ****  * that both that copyright notice and this permission notice appear
  48:c:\program files\codesourcery\sourcery_codebench_lite_for_arm_eabi\bin\../lib/gcc/arm-none-eabi/4.6.3/../../../../arm-none-eabi/include/c++/4.6.3/bits\stl_algo.h ****  * in supporting documentation.  Silicon Graphics makes no
  49:c:\program files\codesourcery\sourcery_codebench_lite_for_arm_eabi\bin\../lib/gcc/arm-none-eabi/4.6.3/../../../../arm-none-eabi/include/c++/4.6.3/bits\stl_algo.h ****  * representations about the suitability of this software for any
  50:c:\program files\codesourcery\sourcery_codebench_lite_for_arm_eabi\bin\../lib/gcc/arm-none-eabi/4.6.3/../../../../arm-none-eabi/include/c++/4.6.3/bits\stl_algo.h ****  * purpose.  It is provided "as is" without express or implied warranty.
  51:c:\program files\codesourcery\sourcery_codebench_lite_for_arm_eabi\bin\../lib/gcc/arm-none-eabi/4.6.3/../../../../arm-none-eabi/include/c++/4.6.3/bits\stl_algo.h ****  */
  52:c:\program files\codesourcery\sourcery_codebench_lite_for_arm_eabi\bin\../lib/gcc/arm-none-eabi/4.6.3/../../../../arm-none-eabi/include/c++/4.6.3/bits\stl_algo.h **** 
  53:c:\program files\codesourcery\sourcery_codebench_lite_for_arm_eabi\bin\../lib/gcc/arm-none-eabi/4.6.3/../../../../arm-none-eabi/include/c++/4.6.3/bits\stl_algo.h **** /** @file bits/stl_algo.h
  54:c:\program files\codesourcery\sourcery_codebench_lite_for_arm_eabi\bin\../lib/gcc/arm-none-eabi/4.6.3/../../../../arm-none-eabi/include/c++/4.6.3/bits\stl_algo.h ****  *  This is an internal header file, included by other library headers.
  55:c:\program files\codesourcery\sourcery_codebench_lite_for_arm_eabi\bin\../lib/gcc/arm-none-eabi/4.6.3/../../../../arm-none-eabi/include/c++/4.6.3/bits\stl_algo.h ****  *  Do not attempt to use it directly. @headername{algorithm}
  56:c:\program files\codesourcery\sourcery_codebench_lite_for_arm_eabi\bin\../lib/gcc/arm-none-eabi/4.6.3/../../../../arm-none-eabi/include/c++/4.6.3/bits\stl_algo.h ****  */
  57:c:\program files\codesourcery\sourcery_codebench_lite_for_arm_eabi\bin\../lib/gcc/arm-none-eabi/4.6.3/../../../../arm-none-eabi/include/c++/4.6.3/bits\stl_algo.h **** 
  58:c:\program files\codesourcery\sourcery_codebench_lite_for_arm_eabi\bin\../lib/gcc/arm-none-eabi/4.6.3/../../../../arm-none-eabi/include/c++/4.6.3/bits\stl_algo.h **** #ifndef _STL_ALGO_H
  59:c:\program files\codesourcery\sourcery_codebench_lite_for_arm_eabi\bin\../lib/gcc/arm-none-eabi/4.6.3/../../../../arm-none-eabi/include/c++/4.6.3/bits\stl_algo.h **** #define _STL_ALGO_H 1
  60:c:\program files\codesourcery\sourcery_codebench_lite_for_arm_eabi\bin\../lib/gcc/arm-none-eabi/4.6.3/../../../../arm-none-eabi/include/c++/4.6.3/bits\stl_algo.h **** 
  61:c:\program files\codesourcery\sourcery_codebench_lite_for_arm_eabi\bin\../lib/gcc/arm-none-eabi/4.6.3/../../../../arm-none-eabi/include/c++/4.6.3/bits\stl_algo.h **** #include <cstdlib>             // for rand
  62:c:\program files\codesourcery\sourcery_codebench_lite_for_arm_eabi\bin\../lib/gcc/arm-none-eabi/4.6.3/../../../../arm-none-eabi/include/c++/4.6.3/bits\stl_algo.h **** #include <bits/algorithmfwd.h>
  63:c:\program files\codesourcery\sourcery_codebench_lite_for_arm_eabi\bin\../lib/gcc/arm-none-eabi/4.6.3/../../../../arm-none-eabi/include/c++/4.6.3/bits\stl_algo.h **** #include <bits/stl_heap.h>
  64:c:\program files\codesourcery\sourcery_codebench_lite_for_arm_eabi\bin\../lib/gcc/arm-none-eabi/4.6.3/../../../../arm-none-eabi/include/c++/4.6.3/bits\stl_algo.h **** #include <bits/stl_tempbuf.h>  // for _Temporary_buffer
  65:c:\program files\codesourcery\sourcery_codebench_lite_for_arm_eabi\bin\../lib/gcc/arm-none-eabi/4.6.3/../../../../arm-none-eabi/include/c++/4.6.3/bits\stl_algo.h **** 
  66:c:\program files\codesourcery\sourcery_codebench_lite_for_arm_eabi\bin\../lib/gcc/arm-none-eabi/4.6.3/../../../../arm-none-eabi/include/c++/4.6.3/bits\stl_algo.h **** #ifdef __GXX_EXPERIMENTAL_CXX0X__
  67:c:\program files\codesourcery\sourcery_codebench_lite_for_arm_eabi\bin\../lib/gcc/arm-none-eabi/4.6.3/../../../../arm-none-eabi/include/c++/4.6.3/bits\stl_algo.h **** #include <random>     // for std::uniform_int_distribution
  68:c:\program files\codesourcery\sourcery_codebench_lite_for_arm_eabi\bin\../lib/gcc/arm-none-eabi/4.6.3/../../../../arm-none-eabi/include/c++/4.6.3/bits\stl_algo.h **** #include <functional> // for std::bind
  69:c:\program files\codesourcery\sourcery_codebench_lite_for_arm_eabi\bin\../lib/gcc/arm-none-eabi/4.6.3/../../../../arm-none-eabi/include/c++/4.6.3/bits\stl_algo.h **** #endif
  70:c:\program files\codesourcery\sourcery_codebench_lite_for_arm_eabi\bin\../lib/gcc/arm-none-eabi/4.6.3/../../../../arm-none-eabi/include/c++/4.6.3/bits\stl_algo.h **** 
  71:c:\program files\codesourcery\sourcery_codebench_lite_for_arm_eabi\bin\../lib/gcc/arm-none-eabi/4.6.3/../../../../arm-none-eabi/include/c++/4.6.3/bits\stl_algo.h **** // See concept_check.h for the __glibcxx_*_requires macros.
  72:c:\program files\codesourcery\sourcery_codebench_lite_for_arm_eabi\bin\../lib/gcc/arm-none-eabi/4.6.3/../../../../arm-none-eabi/include/c++/4.6.3/bits\stl_algo.h **** 
  73:c:\program files\codesourcery\sourcery_codebench_lite_for_arm_eabi\bin\../lib/gcc/arm-none-eabi/4.6.3/../../../../arm-none-eabi/include/c++/4.6.3/bits\stl_algo.h **** namespace std _GLIBCXX_VISIBILITY(default)
  74:c:\program files\codesourcery\sourcery_codebench_lite_for_arm_eabi\bin\../lib/gcc/arm-none-eabi/4.6.3/../../../../arm-none-eabi/include/c++/4.6.3/bits\stl_algo.h **** {
  75:c:\program files\codesourcery\sourcery_codebench_lite_for_arm_eabi\bin\../lib/gcc/arm-none-eabi/4.6.3/../../../../arm-none-eabi/include/c++/4.6.3/bits\stl_algo.h **** _GLIBCXX_BEGIN_NAMESPACE_VERSION
  76:c:\program files\codesourcery\sourcery_codebench_lite_for_arm_eabi\bin\../lib/gcc/arm-none-eabi/4.6.3/../../../../arm-none-eabi/include/c++/4.6.3/bits\stl_algo.h **** 
  77:c:\program files\codesourcery\sourcery_codebench_lite_for_arm_eabi\bin\../lib/gcc/arm-none-eabi/4.6.3/../../../../arm-none-eabi/include/c++/4.6.3/bits\stl_algo.h ****   /// Swaps the median value of *__a, *__b and *__c to *__a
  78:c:\program files\codesourcery\sourcery_codebench_lite_for_arm_eabi\bin\../lib/gcc/arm-none-eabi/4.6.3/../../../../arm-none-eabi/include/c++/4.6.3/bits\stl_algo.h ****   template<typename _Iterator>
  79:c:\program files\codesourcery\sourcery_codebench_lite_for_arm_eabi\bin\../lib/gcc/arm-none-eabi/4.6.3/../../../../arm-none-eabi/include/c++/4.6.3/bits\stl_algo.h ****     void
  80:c:\program files\codesourcery\sourcery_codebench_lite_for_arm_eabi\bin\../lib/gcc/arm-none-eabi/4.6.3/../../../../arm-none-eabi/include/c++/4.6.3/bits\stl_algo.h ****     __move_median_first(_Iterator __a, _Iterator __b, _Iterator __c)
 293              	 .loc 4 80 0
 294              	 .cfi_startproc
 295              	 
 296              	 
 297              	 
 298              	.LVL15:
 299 0000 30B4     	 push {r4,r5}
 300              	.LCFI3:
 301              	 .cfi_def_cfa_offset 8
 302              	 .cfi_offset 5,-4
 303              	 .cfi_offset 4,-8
  81:c:\program files\codesourcery\sourcery_codebench_lite_for_arm_eabi\bin\../lib/gcc/arm-none-eabi/4.6.3/../../../../arm-none-eabi/include/c++/4.6.3/bits\stl_algo.h ****     {
  82:c:\program files\codesourcery\sourcery_codebench_lite_for_arm_eabi\bin\../lib/gcc/arm-none-eabi/4.6.3/../../../../arm-none-eabi/include/c++/4.6.3/bits\stl_algo.h ****       // concept requirements
  83:c:\program files\codesourcery\sourcery_codebench_lite_for_arm_eabi\bin\../lib/gcc/arm-none-eabi/4.6.3/../../../../arm-none-eabi/include/c++/4.6.3/bits\stl_algo.h ****       __glibcxx_function_requires(_LessThanComparableConcept<
  84:c:\program files\codesourcery\sourcery_codebench_lite_for_arm_eabi\bin\../lib/gcc/arm-none-eabi/4.6.3/../../../../arm-none-eabi/include/c++/4.6.3/bits\stl_algo.h **** 	    typename iterator_traits<_Iterator>::value_type>)
  85:c:\program files\codesourcery\sourcery_codebench_lite_for_arm_eabi\bin\../lib/gcc/arm-none-eabi/4.6.3/../../../../arm-none-eabi/include/c++/4.6.3/bits\stl_algo.h **** 
  86:c:\program files\codesourcery\sourcery_codebench_lite_for_arm_eabi\bin\../lib/gcc/arm-none-eabi/4.6.3/../../../../arm-none-eabi/include/c++/4.6.3/bits\stl_algo.h ****       if (*__a < *__b)
 304              	 .loc 4 86 0
 305 0002 0368     	 ldr r3,[r0,#0]
 306 0004 0C68     	 ldr r4,[r1,#0]
 307 0006 A342     	 cmp r3,r4
 308 0008 0AD2     	 bcs .L33
  87:c:\program files\codesourcery\sourcery_codebench_lite_for_arm_eabi\bin\../lib/gcc/arm-none-eabi/4.6.3/../../../../arm-none-eabi/include/c++/4.6.3/bits\stl_algo.h **** 	{
  88:c:\program files\codesourcery\sourcery_codebench_lite_for_arm_eabi\bin\../lib/gcc/arm-none-eabi/4.6.3/../../../../arm-none-eabi/include/c++/4.6.3/bits\stl_algo.h **** 	  if (*__b < *__c)
 309              	 .loc 4 88 0
 310 000a 1568     	 ldr r5,[r2,#0]
 311 000c AC42     	 cmp r4,r5
 312              	.LBB150:
 313              	.LBB151:
 314              	.LBB152:
 315              	.LBB153:
 316              	.LBB154:
 317              	 .file 5 "c:\\program files\\codesourcery\\sourcery_codebench_lite_for_arm_eabi\\bin\\../lib/gcc/arm-none-eabi/4.6.3/../../../../arm-none-eabi/include/c++/4.6.3/bits/move.h"
   1:c:\program files\codesourcery\sourcery_codebench_lite_for_arm_eabi\bin\../lib/gcc/arm-none-eabi/4.6.3/../../../../arm-none-eabi/include/c++/4.6.3/bits\move.h **** // Move, forward and identity for C++0x + swap -*- C++ -*-
   2:c:\program files\codesourcery\sourcery_codebench_lite_for_arm_eabi\bin\../lib/gcc/arm-none-eabi/4.6.3/../../../../arm-none-eabi/include/c++/4.6.3/bits\move.h **** 
   3:c:\program files\codesourcery\sourcery_codebench_lite_for_arm_eabi\bin\../lib/gcc/arm-none-eabi/4.6.3/../../../../arm-none-eabi/include/c++/4.6.3/bits\move.h **** // Copyright (C) 2007, 2008, 2009, 2010 Free Software Foundation, Inc.
   4:c:\program files\codesourcery\sourcery_codebench_lite_for_arm_eabi\bin\../lib/gcc/arm-none-eabi/4.6.3/../../../../arm-none-eabi/include/c++/4.6.3/bits\move.h **** //
   5:c:\program files\codesourcery\sourcery_codebench_lite_for_arm_eabi\bin\../lib/gcc/arm-none-eabi/4.6.3/../../../../arm-none-eabi/include/c++/4.6.3/bits\move.h **** // This file is part of the GNU ISO C++ Library.  This library is free
   6:c:\program files\codesourcery\sourcery_codebench_lite_for_arm_eabi\bin\../lib/gcc/arm-none-eabi/4.6.3/../../../../arm-none-eabi/include/c++/4.6.3/bits\move.h **** // software; you can redistribute it and/or modify it under the
   7:c:\program files\codesourcery\sourcery_codebench_lite_for_arm_eabi\bin\../lib/gcc/arm-none-eabi/4.6.3/../../../../arm-none-eabi/include/c++/4.6.3/bits\move.h **** // terms of the GNU General Public License as published by the
   8:c:\program files\codesourcery\sourcery_codebench_lite_for_arm_eabi\bin\../lib/gcc/arm-none-eabi/4.6.3/../../../../arm-none-eabi/include/c++/4.6.3/bits\move.h **** // Free Software Foundation; either version 3, or (at your option)
   9:c:\program files\codesourcery\sourcery_codebench_lite_for_arm_eabi\bin\../lib/gcc/arm-none-eabi/4.6.3/../../../../arm-none-eabi/include/c++/4.6.3/bits\move.h **** // any later version.
  10:c:\program files\codesourcery\sourcery_codebench_lite_for_arm_eabi\bin\../lib/gcc/arm-none-eabi/4.6.3/../../../../arm-none-eabi/include/c++/4.6.3/bits\move.h **** 
  11:c:\program files\codesourcery\sourcery_codebench_lite_for_arm_eabi\bin\../lib/gcc/arm-none-eabi/4.6.3/../../../../arm-none-eabi/include/c++/4.6.3/bits\move.h **** // This library is distributed in the hope that it will be useful,
  12:c:\program files\codesourcery\sourcery_codebench_lite_for_arm_eabi\bin\../lib/gcc/arm-none-eabi/4.6.3/../../../../arm-none-eabi/include/c++/4.6.3/bits\move.h **** // but WITHOUT ANY WARRANTY; without even the implied warranty of
  13:c:\program files\codesourcery\sourcery_codebench_lite_for_arm_eabi\bin\../lib/gcc/arm-none-eabi/4.6.3/../../../../arm-none-eabi/include/c++/4.6.3/bits\move.h **** // MERCHANTABILITY or FITNESS FOR A PARTICULAR PURPOSE.  See the
  14:c:\program files\codesourcery\sourcery_codebench_lite_for_arm_eabi\bin\../lib/gcc/arm-none-eabi/4.6.3/../../../../arm-none-eabi/include/c++/4.6.3/bits\move.h **** // GNU General Public License for more details.
  15:c:\program files\codesourcery\sourcery_codebench_lite_for_arm_eabi\bin\../lib/gcc/arm-none-eabi/4.6.3/../../../../arm-none-eabi/include/c++/4.6.3/bits\move.h **** 
  16:c:\program files\codesourcery\sourcery_codebench_lite_for_arm_eabi\bin\../lib/gcc/arm-none-eabi/4.6.3/../../../../arm-none-eabi/include/c++/4.6.3/bits\move.h **** // Under Section 7 of GPL version 3, you are granted additional
  17:c:\program files\codesourcery\sourcery_codebench_lite_for_arm_eabi\bin\../lib/gcc/arm-none-eabi/4.6.3/../../../../arm-none-eabi/include/c++/4.6.3/bits\move.h **** // permissions described in the GCC Runtime Library Exception, version
  18:c:\program files\codesourcery\sourcery_codebench_lite_for_arm_eabi\bin\../lib/gcc/arm-none-eabi/4.6.3/../../../../arm-none-eabi/include/c++/4.6.3/bits\move.h **** // 3.1, as published by the Free Software Foundation.
  19:c:\program files\codesourcery\sourcery_codebench_lite_for_arm_eabi\bin\../lib/gcc/arm-none-eabi/4.6.3/../../../../arm-none-eabi/include/c++/4.6.3/bits\move.h **** 
  20:c:\program files\codesourcery\sourcery_codebench_lite_for_arm_eabi\bin\../lib/gcc/arm-none-eabi/4.6.3/../../../../arm-none-eabi/include/c++/4.6.3/bits\move.h **** // You should have received a copy of the GNU General Public License and
  21:c:\program files\codesourcery\sourcery_codebench_lite_for_arm_eabi\bin\../lib/gcc/arm-none-eabi/4.6.3/../../../../arm-none-eabi/include/c++/4.6.3/bits\move.h **** // a copy of the GCC Runtime Library Exception along with this program;
  22:c:\program files\codesourcery\sourcery_codebench_lite_for_arm_eabi\bin\../lib/gcc/arm-none-eabi/4.6.3/../../../../arm-none-eabi/include/c++/4.6.3/bits\move.h **** // see the files COPYING3 and COPYING.RUNTIME respectively.  If not, see
  23:c:\program files\codesourcery\sourcery_codebench_lite_for_arm_eabi\bin\../lib/gcc/arm-none-eabi/4.6.3/../../../../arm-none-eabi/include/c++/4.6.3/bits\move.h **** // <http://www.gnu.org/licenses/>.
  24:c:\program files\codesourcery\sourcery_codebench_lite_for_arm_eabi\bin\../lib/gcc/arm-none-eabi/4.6.3/../../../../arm-none-eabi/include/c++/4.6.3/bits\move.h **** 
  25:c:\program files\codesourcery\sourcery_codebench_lite_for_arm_eabi\bin\../lib/gcc/arm-none-eabi/4.6.3/../../../../arm-none-eabi/include/c++/4.6.3/bits\move.h **** /** @file bits/move.h
  26:c:\program files\codesourcery\sourcery_codebench_lite_for_arm_eabi\bin\../lib/gcc/arm-none-eabi/4.6.3/../../../../arm-none-eabi/include/c++/4.6.3/bits\move.h ****  *  This is an internal header file, included by other library headers.
  27:c:\program files\codesourcery\sourcery_codebench_lite_for_arm_eabi\bin\../lib/gcc/arm-none-eabi/4.6.3/../../../../arm-none-eabi/include/c++/4.6.3/bits\move.h ****  *  Do not attempt to use it directly. @headername{utility}
  28:c:\program files\codesourcery\sourcery_codebench_lite_for_arm_eabi\bin\../lib/gcc/arm-none-eabi/4.6.3/../../../../arm-none-eabi/include/c++/4.6.3/bits\move.h ****  */
  29:c:\program files\codesourcery\sourcery_codebench_lite_for_arm_eabi\bin\../lib/gcc/arm-none-eabi/4.6.3/../../../../arm-none-eabi/include/c++/4.6.3/bits\move.h **** 
  30:c:\program files\codesourcery\sourcery_codebench_lite_for_arm_eabi\bin\../lib/gcc/arm-none-eabi/4.6.3/../../../../arm-none-eabi/include/c++/4.6.3/bits\move.h **** #ifndef _MOVE_H
  31:c:\program files\codesourcery\sourcery_codebench_lite_for_arm_eabi\bin\../lib/gcc/arm-none-eabi/4.6.3/../../../../arm-none-eabi/include/c++/4.6.3/bits\move.h **** #define _MOVE_H 1
  32:c:\program files\codesourcery\sourcery_codebench_lite_for_arm_eabi\bin\../lib/gcc/arm-none-eabi/4.6.3/../../../../arm-none-eabi/include/c++/4.6.3/bits\move.h **** 
  33:c:\program files\codesourcery\sourcery_codebench_lite_for_arm_eabi\bin\../lib/gcc/arm-none-eabi/4.6.3/../../../../arm-none-eabi/include/c++/4.6.3/bits\move.h **** #include <bits/c++config.h>
  34:c:\program files\codesourcery\sourcery_codebench_lite_for_arm_eabi\bin\../lib/gcc/arm-none-eabi/4.6.3/../../../../arm-none-eabi/include/c++/4.6.3/bits\move.h **** #include <bits/concept_check.h>
  35:c:\program files\codesourcery\sourcery_codebench_lite_for_arm_eabi\bin\../lib/gcc/arm-none-eabi/4.6.3/../../../../arm-none-eabi/include/c++/4.6.3/bits\move.h **** 
  36:c:\program files\codesourcery\sourcery_codebench_lite_for_arm_eabi\bin\../lib/gcc/arm-none-eabi/4.6.3/../../../../arm-none-eabi/include/c++/4.6.3/bits\move.h **** namespace std _GLIBCXX_VISIBILITY(default)
  37:c:\program files\codesourcery\sourcery_codebench_lite_for_arm_eabi\bin\../lib/gcc/arm-none-eabi/4.6.3/../../../../arm-none-eabi/include/c++/4.6.3/bits\move.h **** {
  38:c:\program files\codesourcery\sourcery_codebench_lite_for_arm_eabi\bin\../lib/gcc/arm-none-eabi/4.6.3/../../../../arm-none-eabi/include/c++/4.6.3/bits\move.h **** _GLIBCXX_BEGIN_NAMESPACE_VERSION
  39:c:\program files\codesourcery\sourcery_codebench_lite_for_arm_eabi\bin\../lib/gcc/arm-none-eabi/4.6.3/../../../../arm-none-eabi/include/c++/4.6.3/bits\move.h **** 
  40:c:\program files\codesourcery\sourcery_codebench_lite_for_arm_eabi\bin\../lib/gcc/arm-none-eabi/4.6.3/../../../../arm-none-eabi/include/c++/4.6.3/bits\move.h ****   // Used, in C++03 mode too, by allocators, etc.
  41:c:\program files\codesourcery\sourcery_codebench_lite_for_arm_eabi\bin\../lib/gcc/arm-none-eabi/4.6.3/../../../../arm-none-eabi/include/c++/4.6.3/bits\move.h ****   template<typename _Tp>
  42:c:\program files\codesourcery\sourcery_codebench_lite_for_arm_eabi\bin\../lib/gcc/arm-none-eabi/4.6.3/../../../../arm-none-eabi/include/c++/4.6.3/bits\move.h ****     inline _Tp*
  43:c:\program files\codesourcery\sourcery_codebench_lite_for_arm_eabi\bin\../lib/gcc/arm-none-eabi/4.6.3/../../../../arm-none-eabi/include/c++/4.6.3/bits\move.h ****     __addressof(_Tp& __r)
  44:c:\program files\codesourcery\sourcery_codebench_lite_for_arm_eabi\bin\../lib/gcc/arm-none-eabi/4.6.3/../../../../arm-none-eabi/include/c++/4.6.3/bits\move.h ****     {
  45:c:\program files\codesourcery\sourcery_codebench_lite_for_arm_eabi\bin\../lib/gcc/arm-none-eabi/4.6.3/../../../../arm-none-eabi/include/c++/4.6.3/bits\move.h ****       return reinterpret_cast<_Tp*>
  46:c:\program files\codesourcery\sourcery_codebench_lite_for_arm_eabi\bin\../lib/gcc/arm-none-eabi/4.6.3/../../../../arm-none-eabi/include/c++/4.6.3/bits\move.h **** 	(&const_cast<char&>(reinterpret_cast<const volatile char&>(__r)));
  47:c:\program files\codesourcery\sourcery_codebench_lite_for_arm_eabi\bin\../lib/gcc/arm-none-eabi/4.6.3/../../../../arm-none-eabi/include/c++/4.6.3/bits\move.h ****     }
  48:c:\program files\codesourcery\sourcery_codebench_lite_for_arm_eabi\bin\../lib/gcc/arm-none-eabi/4.6.3/../../../../arm-none-eabi/include/c++/4.6.3/bits\move.h **** 
  49:c:\program files\codesourcery\sourcery_codebench_lite_for_arm_eabi\bin\../lib/gcc/arm-none-eabi/4.6.3/../../../../arm-none-eabi/include/c++/4.6.3/bits\move.h **** _GLIBCXX_END_NAMESPACE_VERSION
  50:c:\program files\codesourcery\sourcery_codebench_lite_for_arm_eabi\bin\../lib/gcc/arm-none-eabi/4.6.3/../../../../arm-none-eabi/include/c++/4.6.3/bits\move.h **** } // namespace
  51:c:\program files\codesourcery\sourcery_codebench_lite_for_arm_eabi\bin\../lib/gcc/arm-none-eabi/4.6.3/../../../../arm-none-eabi/include/c++/4.6.3/bits\move.h **** 
  52:c:\program files\codesourcery\sourcery_codebench_lite_for_arm_eabi\bin\../lib/gcc/arm-none-eabi/4.6.3/../../../../arm-none-eabi/include/c++/4.6.3/bits\move.h **** #ifdef __GXX_EXPERIMENTAL_CXX0X__
  53:c:\program files\codesourcery\sourcery_codebench_lite_for_arm_eabi\bin\../lib/gcc/arm-none-eabi/4.6.3/../../../../arm-none-eabi/include/c++/4.6.3/bits\move.h **** #include <type_traits> // Brings in std::declval too.
  54:c:\program files\codesourcery\sourcery_codebench_lite_for_arm_eabi\bin\../lib/gcc/arm-none-eabi/4.6.3/../../../../arm-none-eabi/include/c++/4.6.3/bits\move.h **** 
  55:c:\program files\codesourcery\sourcery_codebench_lite_for_arm_eabi\bin\../lib/gcc/arm-none-eabi/4.6.3/../../../../arm-none-eabi/include/c++/4.6.3/bits\move.h **** namespace std _GLIBCXX_VISIBILITY(default)
  56:c:\program files\codesourcery\sourcery_codebench_lite_for_arm_eabi\bin\../lib/gcc/arm-none-eabi/4.6.3/../../../../arm-none-eabi/include/c++/4.6.3/bits\move.h **** {
  57:c:\program files\codesourcery\sourcery_codebench_lite_for_arm_eabi\bin\../lib/gcc/arm-none-eabi/4.6.3/../../../../arm-none-eabi/include/c++/4.6.3/bits\move.h **** _GLIBCXX_BEGIN_NAMESPACE_VERSION
  58:c:\program files\codesourcery\sourcery_codebench_lite_for_arm_eabi\bin\../lib/gcc/arm-none-eabi/4.6.3/../../../../arm-none-eabi/include/c++/4.6.3/bits\move.h ****   
  59:c:\program files\codesourcery\sourcery_codebench_lite_for_arm_eabi\bin\../lib/gcc/arm-none-eabi/4.6.3/../../../../arm-none-eabi/include/c++/4.6.3/bits\move.h ****   /// forward (as per N3143)
  60:c:\program files\codesourcery\sourcery_codebench_lite_for_arm_eabi\bin\../lib/gcc/arm-none-eabi/4.6.3/../../../../arm-none-eabi/include/c++/4.6.3/bits\move.h ****   template<typename _Tp>
  61:c:\program files\codesourcery\sourcery_codebench_lite_for_arm_eabi\bin\../lib/gcc/arm-none-eabi/4.6.3/../../../../arm-none-eabi/include/c++/4.6.3/bits\move.h ****     inline _Tp&&
  62:c:\program files\codesourcery\sourcery_codebench_lite_for_arm_eabi\bin\../lib/gcc/arm-none-eabi/4.6.3/../../../../arm-none-eabi/include/c++/4.6.3/bits\move.h ****     forward(typename std::remove_reference<_Tp>::type& __t) 
  63:c:\program files\codesourcery\sourcery_codebench_lite_for_arm_eabi\bin\../lib/gcc/arm-none-eabi/4.6.3/../../../../arm-none-eabi/include/c++/4.6.3/bits\move.h ****     { return static_cast<_Tp&&>(__t); }
  64:c:\program files\codesourcery\sourcery_codebench_lite_for_arm_eabi\bin\../lib/gcc/arm-none-eabi/4.6.3/../../../../arm-none-eabi/include/c++/4.6.3/bits\move.h **** 
  65:c:\program files\codesourcery\sourcery_codebench_lite_for_arm_eabi\bin\../lib/gcc/arm-none-eabi/4.6.3/../../../../arm-none-eabi/include/c++/4.6.3/bits\move.h ****   template<typename _Tp>
  66:c:\program files\codesourcery\sourcery_codebench_lite_for_arm_eabi\bin\../lib/gcc/arm-none-eabi/4.6.3/../../../../arm-none-eabi/include/c++/4.6.3/bits\move.h ****     inline _Tp&&
  67:c:\program files\codesourcery\sourcery_codebench_lite_for_arm_eabi\bin\../lib/gcc/arm-none-eabi/4.6.3/../../../../arm-none-eabi/include/c++/4.6.3/bits\move.h ****     forward(typename std::remove_reference<_Tp>::type&& __t) 
  68:c:\program files\codesourcery\sourcery_codebench_lite_for_arm_eabi\bin\../lib/gcc/arm-none-eabi/4.6.3/../../../../arm-none-eabi/include/c++/4.6.3/bits\move.h ****     {
  69:c:\program files\codesourcery\sourcery_codebench_lite_for_arm_eabi\bin\../lib/gcc/arm-none-eabi/4.6.3/../../../../arm-none-eabi/include/c++/4.6.3/bits\move.h ****       static_assert(!std::is_lvalue_reference<_Tp>::value, "template argument"
  70:c:\program files\codesourcery\sourcery_codebench_lite_for_arm_eabi\bin\../lib/gcc/arm-none-eabi/4.6.3/../../../../arm-none-eabi/include/c++/4.6.3/bits\move.h **** 		    " substituting _Tp is an lvalue reference type");
  71:c:\program files\codesourcery\sourcery_codebench_lite_for_arm_eabi\bin\../lib/gcc/arm-none-eabi/4.6.3/../../../../arm-none-eabi/include/c++/4.6.3/bits\move.h ****       return static_cast<_Tp&&>(__t);
  72:c:\program files\codesourcery\sourcery_codebench_lite_for_arm_eabi\bin\../lib/gcc/arm-none-eabi/4.6.3/../../../../arm-none-eabi/include/c++/4.6.3/bits\move.h ****     }
  73:c:\program files\codesourcery\sourcery_codebench_lite_for_arm_eabi\bin\../lib/gcc/arm-none-eabi/4.6.3/../../../../arm-none-eabi/include/c++/4.6.3/bits\move.h **** 
  74:c:\program files\codesourcery\sourcery_codebench_lite_for_arm_eabi\bin\../lib/gcc/arm-none-eabi/4.6.3/../../../../arm-none-eabi/include/c++/4.6.3/bits\move.h ****   /**
  75:c:\program files\codesourcery\sourcery_codebench_lite_for_arm_eabi\bin\../lib/gcc/arm-none-eabi/4.6.3/../../../../arm-none-eabi/include/c++/4.6.3/bits\move.h ****    *  @brief Move a value.
  76:c:\program files\codesourcery\sourcery_codebench_lite_for_arm_eabi\bin\../lib/gcc/arm-none-eabi/4.6.3/../../../../arm-none-eabi/include/c++/4.6.3/bits\move.h ****    *  @ingroup mutating_algorithms
  77:c:\program files\codesourcery\sourcery_codebench_lite_for_arm_eabi\bin\../lib/gcc/arm-none-eabi/4.6.3/../../../../arm-none-eabi/include/c++/4.6.3/bits\move.h ****    *  @param  __t  A thing of arbitrary type.
  78:c:\program files\codesourcery\sourcery_codebench_lite_for_arm_eabi\bin\../lib/gcc/arm-none-eabi/4.6.3/../../../../arm-none-eabi/include/c++/4.6.3/bits\move.h ****    *  @return Same, moved.
  79:c:\program files\codesourcery\sourcery_codebench_lite_for_arm_eabi\bin\../lib/gcc/arm-none-eabi/4.6.3/../../../../arm-none-eabi/include/c++/4.6.3/bits\move.h ****   */
  80:c:\program files\codesourcery\sourcery_codebench_lite_for_arm_eabi\bin\../lib/gcc/arm-none-eabi/4.6.3/../../../../arm-none-eabi/include/c++/4.6.3/bits\move.h ****   template<typename _Tp>
  81:c:\program files\codesourcery\sourcery_codebench_lite_for_arm_eabi\bin\../lib/gcc/arm-none-eabi/4.6.3/../../../../arm-none-eabi/include/c++/4.6.3/bits\move.h ****     inline typename std::remove_reference<_Tp>::type&&
  82:c:\program files\codesourcery\sourcery_codebench_lite_for_arm_eabi\bin\../lib/gcc/arm-none-eabi/4.6.3/../../../../arm-none-eabi/include/c++/4.6.3/bits\move.h ****     move(_Tp&& __t)
  83:c:\program files\codesourcery\sourcery_codebench_lite_for_arm_eabi\bin\../lib/gcc/arm-none-eabi/4.6.3/../../../../arm-none-eabi/include/c++/4.6.3/bits\move.h ****     { return static_cast<typename std::remove_reference<_Tp>::type&&>(__t); }
  84:c:\program files\codesourcery\sourcery_codebench_lite_for_arm_eabi\bin\../lib/gcc/arm-none-eabi/4.6.3/../../../../arm-none-eabi/include/c++/4.6.3/bits\move.h **** 
  85:c:\program files\codesourcery\sourcery_codebench_lite_for_arm_eabi\bin\../lib/gcc/arm-none-eabi/4.6.3/../../../../arm-none-eabi/include/c++/4.6.3/bits\move.h ****   /// declval, from type_traits.
  86:c:\program files\codesourcery\sourcery_codebench_lite_for_arm_eabi\bin\../lib/gcc/arm-none-eabi/4.6.3/../../../../arm-none-eabi/include/c++/4.6.3/bits\move.h **** 
  87:c:\program files\codesourcery\sourcery_codebench_lite_for_arm_eabi\bin\../lib/gcc/arm-none-eabi/4.6.3/../../../../arm-none-eabi/include/c++/4.6.3/bits\move.h ****   /**
  88:c:\program files\codesourcery\sourcery_codebench_lite_for_arm_eabi\bin\../lib/gcc/arm-none-eabi/4.6.3/../../../../arm-none-eabi/include/c++/4.6.3/bits\move.h ****    *  @brief Returns the actual address of the object or function
  89:c:\program files\codesourcery\sourcery_codebench_lite_for_arm_eabi\bin\../lib/gcc/arm-none-eabi/4.6.3/../../../../arm-none-eabi/include/c++/4.6.3/bits\move.h ****    *         referenced by r, even in the presence of an overloaded
  90:c:\program files\codesourcery\sourcery_codebench_lite_for_arm_eabi\bin\../lib/gcc/arm-none-eabi/4.6.3/../../../../arm-none-eabi/include/c++/4.6.3/bits\move.h ****    *         operator&.
  91:c:\program files\codesourcery\sourcery_codebench_lite_for_arm_eabi\bin\../lib/gcc/arm-none-eabi/4.6.3/../../../../arm-none-eabi/include/c++/4.6.3/bits\move.h ****    *  @param  __r  Reference to an object or function.
  92:c:\program files\codesourcery\sourcery_codebench_lite_for_arm_eabi\bin\../lib/gcc/arm-none-eabi/4.6.3/../../../../arm-none-eabi/include/c++/4.6.3/bits\move.h ****    *  @return   The actual address.
  93:c:\program files\codesourcery\sourcery_codebench_lite_for_arm_eabi\bin\../lib/gcc/arm-none-eabi/4.6.3/../../../../arm-none-eabi/include/c++/4.6.3/bits\move.h ****   */
  94:c:\program files\codesourcery\sourcery_codebench_lite_for_arm_eabi\bin\../lib/gcc/arm-none-eabi/4.6.3/../../../../arm-none-eabi/include/c++/4.6.3/bits\move.h ****   template<typename _Tp>
  95:c:\program files\codesourcery\sourcery_codebench_lite_for_arm_eabi\bin\../lib/gcc/arm-none-eabi/4.6.3/../../../../arm-none-eabi/include/c++/4.6.3/bits\move.h ****     inline _Tp*
  96:c:\program files\codesourcery\sourcery_codebench_lite_for_arm_eabi\bin\../lib/gcc/arm-none-eabi/4.6.3/../../../../arm-none-eabi/include/c++/4.6.3/bits\move.h ****     addressof(_Tp& __r)
  97:c:\program files\codesourcery\sourcery_codebench_lite_for_arm_eabi\bin\../lib/gcc/arm-none-eabi/4.6.3/../../../../arm-none-eabi/include/c++/4.6.3/bits\move.h ****     { return std::__addressof(__r); }
  98:c:\program files\codesourcery\sourcery_codebench_lite_for_arm_eabi\bin\../lib/gcc/arm-none-eabi/4.6.3/../../../../arm-none-eabi/include/c++/4.6.3/bits\move.h **** 
  99:c:\program files\codesourcery\sourcery_codebench_lite_for_arm_eabi\bin\../lib/gcc/arm-none-eabi/4.6.3/../../../../arm-none-eabi/include/c++/4.6.3/bits\move.h **** _GLIBCXX_END_NAMESPACE_VERSION
 100:c:\program files\codesourcery\sourcery_codebench_lite_for_arm_eabi\bin\../lib/gcc/arm-none-eabi/4.6.3/../../../../arm-none-eabi/include/c++/4.6.3/bits\move.h **** } // namespace
 101:c:\program files\codesourcery\sourcery_codebench_lite_for_arm_eabi\bin\../lib/gcc/arm-none-eabi/4.6.3/../../../../arm-none-eabi/include/c++/4.6.3/bits\move.h **** 
 102:c:\program files\codesourcery\sourcery_codebench_lite_for_arm_eabi\bin\../lib/gcc/arm-none-eabi/4.6.3/../../../../arm-none-eabi/include/c++/4.6.3/bits\move.h **** #define _GLIBCXX_MOVE(__val) std::move(__val)
 103:c:\program files\codesourcery\sourcery_codebench_lite_for_arm_eabi\bin\../lib/gcc/arm-none-eabi/4.6.3/../../../../arm-none-eabi/include/c++/4.6.3/bits\move.h **** #define _GLIBCXX_FORWARD(_Tp, __val) std::forward<_Tp>(__val)
 104:c:\program files\codesourcery\sourcery_codebench_lite_for_arm_eabi\bin\../lib/gcc/arm-none-eabi/4.6.3/../../../../arm-none-eabi/include/c++/4.6.3/bits\move.h **** #else
 105:c:\program files\codesourcery\sourcery_codebench_lite_for_arm_eabi\bin\../lib/gcc/arm-none-eabi/4.6.3/../../../../arm-none-eabi/include/c++/4.6.3/bits\move.h **** #define _GLIBCXX_MOVE(__val) (__val)
 106:c:\program files\codesourcery\sourcery_codebench_lite_for_arm_eabi\bin\../lib/gcc/arm-none-eabi/4.6.3/../../../../arm-none-eabi/include/c++/4.6.3/bits\move.h **** #define _GLIBCXX_FORWARD(_Tp, __val) (__val)
 107:c:\program files\codesourcery\sourcery_codebench_lite_for_arm_eabi\bin\../lib/gcc/arm-none-eabi/4.6.3/../../../../arm-none-eabi/include/c++/4.6.3/bits\move.h **** #endif
 108:c:\program files\codesourcery\sourcery_codebench_lite_for_arm_eabi\bin\../lib/gcc/arm-none-eabi/4.6.3/../../../../arm-none-eabi/include/c++/4.6.3/bits\move.h **** 
 109:c:\program files\codesourcery\sourcery_codebench_lite_for_arm_eabi\bin\../lib/gcc/arm-none-eabi/4.6.3/../../../../arm-none-eabi/include/c++/4.6.3/bits\move.h **** namespace std _GLIBCXX_VISIBILITY(default)
 110:c:\program files\codesourcery\sourcery_codebench_lite_for_arm_eabi\bin\../lib/gcc/arm-none-eabi/4.6.3/../../../../arm-none-eabi/include/c++/4.6.3/bits\move.h **** {
 111:c:\program files\codesourcery\sourcery_codebench_lite_for_arm_eabi\bin\../lib/gcc/arm-none-eabi/4.6.3/../../../../arm-none-eabi/include/c++/4.6.3/bits\move.h **** _GLIBCXX_BEGIN_NAMESPACE_VERSION
 112:c:\program files\codesourcery\sourcery_codebench_lite_for_arm_eabi\bin\../lib/gcc/arm-none-eabi/4.6.3/../../../../arm-none-eabi/include/c++/4.6.3/bits\move.h **** 
 113:c:\program files\codesourcery\sourcery_codebench_lite_for_arm_eabi\bin\../lib/gcc/arm-none-eabi/4.6.3/../../../../arm-none-eabi/include/c++/4.6.3/bits\move.h ****   /**
 114:c:\program files\codesourcery\sourcery_codebench_lite_for_arm_eabi\bin\../lib/gcc/arm-none-eabi/4.6.3/../../../../arm-none-eabi/include/c++/4.6.3/bits\move.h ****    *  @brief Swaps two values.
 115:c:\program files\codesourcery\sourcery_codebench_lite_for_arm_eabi\bin\../lib/gcc/arm-none-eabi/4.6.3/../../../../arm-none-eabi/include/c++/4.6.3/bits\move.h ****    *  @ingroup mutating_algorithms
 116:c:\program files\codesourcery\sourcery_codebench_lite_for_arm_eabi\bin\../lib/gcc/arm-none-eabi/4.6.3/../../../../arm-none-eabi/include/c++/4.6.3/bits\move.h ****    *  @param  __a  A thing of arbitrary type.
 117:c:\program files\codesourcery\sourcery_codebench_lite_for_arm_eabi\bin\../lib/gcc/arm-none-eabi/4.6.3/../../../../arm-none-eabi/include/c++/4.6.3/bits\move.h ****    *  @param  __b  Another thing of arbitrary type.
 118:c:\program files\codesourcery\sourcery_codebench_lite_for_arm_eabi\bin\../lib/gcc/arm-none-eabi/4.6.3/../../../../arm-none-eabi/include/c++/4.6.3/bits\move.h ****    *  @return   Nothing.
 119:c:\program files\codesourcery\sourcery_codebench_lite_for_arm_eabi\bin\../lib/gcc/arm-none-eabi/4.6.3/../../../../arm-none-eabi/include/c++/4.6.3/bits\move.h ****   */
 120:c:\program files\codesourcery\sourcery_codebench_lite_for_arm_eabi\bin\../lib/gcc/arm-none-eabi/4.6.3/../../../../arm-none-eabi/include/c++/4.6.3/bits\move.h ****   template<typename _Tp>
 121:c:\program files\codesourcery\sourcery_codebench_lite_for_arm_eabi\bin\../lib/gcc/arm-none-eabi/4.6.3/../../../../arm-none-eabi/include/c++/4.6.3/bits\move.h ****     inline void
 122:c:\program files\codesourcery\sourcery_codebench_lite_for_arm_eabi\bin\../lib/gcc/arm-none-eabi/4.6.3/../../../../arm-none-eabi/include/c++/4.6.3/bits\move.h ****     swap(_Tp& __a, _Tp& __b)
 123:c:\program files\codesourcery\sourcery_codebench_lite_for_arm_eabi\bin\../lib/gcc/arm-none-eabi/4.6.3/../../../../arm-none-eabi/include/c++/4.6.3/bits\move.h ****     {
 124:c:\program files\codesourcery\sourcery_codebench_lite_for_arm_eabi\bin\../lib/gcc/arm-none-eabi/4.6.3/../../../../arm-none-eabi/include/c++/4.6.3/bits\move.h ****       // concept requirements
 125:c:\program files\codesourcery\sourcery_codebench_lite_for_arm_eabi\bin\../lib/gcc/arm-none-eabi/4.6.3/../../../../arm-none-eabi/include/c++/4.6.3/bits\move.h ****       __glibcxx_function_requires(_SGIAssignableConcept<_Tp>)
 126:c:\program files\codesourcery\sourcery_codebench_lite_for_arm_eabi\bin\../lib/gcc/arm-none-eabi/4.6.3/../../../../arm-none-eabi/include/c++/4.6.3/bits\move.h **** 
 127:c:\program files\codesourcery\sourcery_codebench_lite_for_arm_eabi\bin\../lib/gcc/arm-none-eabi/4.6.3/../../../../arm-none-eabi/include/c++/4.6.3/bits\move.h ****       _Tp __tmp = _GLIBCXX_MOVE(__a);
 128:c:\program files\codesourcery\sourcery_codebench_lite_for_arm_eabi\bin\../lib/gcc/arm-none-eabi/4.6.3/../../../../arm-none-eabi/include/c++/4.6.3/bits\move.h ****       __a = _GLIBCXX_MOVE(__b);
 318              	 .loc 5 128 0
 319 000e 3CBF     	 itt cc
 320 0010 0460     	 strcc r4,[r0,#0]
 129:c:\program files\codesourcery\sourcery_codebench_lite_for_arm_eabi\bin\../lib/gcc/arm-none-eabi/4.6.3/../../../../arm-none-eabi/include/c++/4.6.3/bits\move.h ****       __b = _GLIBCXX_MOVE(__tmp);
 321              	 .loc 5 129 0
 322 0012 0B60     	 strcc r3,[r1,#0]
 323              	.LBE154:
 324              	.LBE153:
 325              	.LBE152:
 326              	.LBE151:
 327              	.LBE150:
 328              	 .loc 4 88 0
 329 0014 0DD3     	 bcc .L32
  89:c:\program files\codesourcery\sourcery_codebench_lite_for_arm_eabi\bin\../lib/gcc/arm-none-eabi/4.6.3/../../../../arm-none-eabi/include/c++/4.6.3/bits\stl_algo.h **** 	    std::iter_swap(__a, __b);
  90:c:\program files\codesourcery\sourcery_codebench_lite_for_arm_eabi\bin\../lib/gcc/arm-none-eabi/4.6.3/../../../../arm-none-eabi/include/c++/4.6.3/bits\stl_algo.h **** 	  else if (*__a < *__c)
 330              	 .loc 4 90 0
 331 0016 AB42     	 cmp r3,r5
 332              	.LBB155:
 333              	.LBB156:
 334              	.LBB157:
 335              	.LBB158:
 336              	.LBB159:
 128:c:\program files\codesourcery\sourcery_codebench_lite_for_arm_eabi\bin\../lib/gcc/arm-none-eabi/4.6.3/../../../../arm-none-eabi/include/c++/4.6.3/bits\move.h ****       __a = _GLIBCXX_MOVE(__b);
 337              	 .loc 5 128 0
 338 0018 3CBF     	 itt cc
 339 001a 0560     	 strcc r5,[r0,#0]
 340              	 .loc 5 129 0
 341 001c 1360     	 strcc r3,[r2,#0]
 342 001e 08E0     	 b .L32
 343              	.L33:
 344              	.LBE159:
 345              	.LBE158:
 346              	.LBE157:
 347              	.LBE156:
 348              	.LBE155:
  91:c:\program files\codesourcery\sourcery_codebench_lite_for_arm_eabi\bin\../lib/gcc/arm-none-eabi/4.6.3/../../../../arm-none-eabi/include/c++/4.6.3/bits\stl_algo.h **** 	    std::iter_swap(__a, __c);
  92:c:\program files\codesourcery\sourcery_codebench_lite_for_arm_eabi\bin\../lib/gcc/arm-none-eabi/4.6.3/../../../../arm-none-eabi/include/c++/4.6.3/bits\stl_algo.h **** 	}
  93:c:\program files\codesourcery\sourcery_codebench_lite_for_arm_eabi\bin\../lib/gcc/arm-none-eabi/4.6.3/../../../../arm-none-eabi/include/c++/4.6.3/bits\stl_algo.h ****       else if (*__a < *__c)
 349              	 .loc 4 93 0
 350 0020 1568     	 ldr r5,[r2,#0]
 351 0022 AB42     	 cmp r3,r5
 352 0024 05D3     	 bcc .L32
  94:c:\program files\codesourcery\sourcery_codebench_lite_for_arm_eabi\bin\../lib/gcc/arm-none-eabi/4.6.3/../../../../arm-none-eabi/include/c++/4.6.3/bits\stl_algo.h **** 	return;
  95:c:\program files\codesourcery\sourcery_codebench_lite_for_arm_eabi\bin\../lib/gcc/arm-none-eabi/4.6.3/../../../../arm-none-eabi/include/c++/4.6.3/bits\stl_algo.h ****       else if (*__b < *__c)
 353              	 .loc 4 95 0
 354 0026 AC42     	 cmp r4,r5
 355              	.LVL16:
 356              	.LBB160:
 357              	.LBB161:
 358              	.LBB162:
 359              	.LBB163:
 360              	.LBB164:
 128:c:\program files\codesourcery\sourcery_codebench_lite_for_arm_eabi\bin\../lib/gcc/arm-none-eabi/4.6.3/../../../../arm-none-eabi/include/c++/4.6.3/bits\move.h ****       __a = _GLIBCXX_MOVE(__b);
 361              	 .loc 5 128 0
 362 0028 39BF     	 ittee cc
 363 002a 0560     	 strcc r5,[r0,#0]
 364              	 .loc 5 129 0
 365 002c 1360     	 strcc r3,[r2,#0]
 366              	.LVL17:
 367              	.LBE164:
 368              	.LBE163:
 369              	.LBE162:
 370              	.LBE161:
 371              	.LBE160:
 372              	.LBB165:
 373              	.LBB166:
 374              	.LBB167:
 375              	.LBB168:
 376              	.LBB169:
 128:c:\program files\codesourcery\sourcery_codebench_lite_for_arm_eabi\bin\../lib/gcc/arm-none-eabi/4.6.3/../../../../arm-none-eabi/include/c++/4.6.3/bits\move.h ****       __a = _GLIBCXX_MOVE(__b);
 377              	 .loc 5 128 0
 378 002e 0460     	 strcs r4,[r0,#0]
 379              	 .loc 5 129 0
 380 0030 0B60     	 strcs r3,[r1,#0]
 381              	.LVL18:
 382              	.L32:
 383              	.LBE169:
 384              	.LBE168:
 385              	.LBE167:
 386              	.LBE166:
 387              	.LBE165:
  96:c:\program files\codesourcery\sourcery_codebench_lite_for_arm_eabi\bin\../lib/gcc/arm-none-eabi/4.6.3/../../../../arm-none-eabi/include/c++/4.6.3/bits\stl_algo.h **** 	std::iter_swap(__a, __c);
  97:c:\program files\codesourcery\sourcery_codebench_lite_for_arm_eabi\bin\../lib/gcc/arm-none-eabi/4.6.3/../../../../arm-none-eabi/include/c++/4.6.3/bits\stl_algo.h ****       else
  98:c:\program files\codesourcery\sourcery_codebench_lite_for_arm_eabi\bin\../lib/gcc/arm-none-eabi/4.6.3/../../../../arm-none-eabi/include/c++/4.6.3/bits\stl_algo.h **** 	std::iter_swap(__a, __b);
  99:c:\program files\codesourcery\sourcery_codebench_lite_for_arm_eabi\bin\../lib/gcc/arm-none-eabi/4.6.3/../../../../arm-none-eabi/include/c++/4.6.3/bits\stl_algo.h ****     }
 388              	 .loc 4 99 0
 389 0032 30BC     	 pop {r4,r5}
 390 0034 7047     	 bx lr
 391              	 .cfi_endproc
 392              	.LFE437:
 394 0036 00BF     	 .section .text._ZSt21__unguarded_partitionIPmmET_S1_S1_RKT0_,"axG",%progbits,_ZSt21__unguarded_partitionIPmmET_S1_S1_RKT0_,comdat
 395              	 .align 2
 396              	 .weak _ZSt21__unguarded_partitionIPmmET_S1_S1_RKT0_
 397              	 .thumb
 398              	 .thumb_func
 400              	_ZSt21__unguarded_partitionIPmmET_S1_S1_RKT0_:
 401              	.LFB438:
 100:c:\program files\codesourcery\sourcery_codebench_lite_for_arm_eabi\bin\../lib/gcc/arm-none-eabi/4.6.3/../../../../arm-none-eabi/include/c++/4.6.3/bits\stl_algo.h **** 
 101:c:\program files\codesourcery\sourcery_codebench_lite_for_arm_eabi\bin\../lib/gcc/arm-none-eabi/4.6.3/../../../../arm-none-eabi/include/c++/4.6.3/bits\stl_algo.h ****   /// Swaps the median value of *__a, *__b and *__c under __comp to *__a
 102:c:\program files\codesourcery\sourcery_codebench_lite_for_arm_eabi\bin\../lib/gcc/arm-none-eabi/4.6.3/../../../../arm-none-eabi/include/c++/4.6.3/bits\stl_algo.h ****   template<typename _Iterator, typename _Compare>
 103:c:\program files\codesourcery\sourcery_codebench_lite_for_arm_eabi\bin\../lib/gcc/arm-none-eabi/4.6.3/../../../../arm-none-eabi/include/c++/4.6.3/bits\stl_algo.h ****     void
 104:c:\program files\codesourcery\sourcery_codebench_lite_for_arm_eabi\bin\../lib/gcc/arm-none-eabi/4.6.3/../../../../arm-none-eabi/include/c++/4.6.3/bits\stl_algo.h ****     __move_median_first(_Iterator __a, _Iterator __b, _Iterator __c,
 105:c:\program files\codesourcery\sourcery_codebench_lite_for_arm_eabi\bin\../lib/gcc/arm-none-eabi/4.6.3/../../../../arm-none-eabi/include/c++/4.6.3/bits\stl_algo.h **** 			_Compare __comp)
 106:c:\program files\codesourcery\sourcery_codebench_lite_for_arm_eabi\bin\../lib/gcc/arm-none-eabi/4.6.3/../../../../arm-none-eabi/include/c++/4.6.3/bits\stl_algo.h ****     {
 107:c:\program files\codesourcery\sourcery_codebench_lite_for_arm_eabi\bin\../lib/gcc/arm-none-eabi/4.6.3/../../../../arm-none-eabi/include/c++/4.6.3/bits\stl_algo.h ****       // concept requirements
 108:c:\program files\codesourcery\sourcery_codebench_lite_for_arm_eabi\bin\../lib/gcc/arm-none-eabi/4.6.3/../../../../arm-none-eabi/include/c++/4.6.3/bits\stl_algo.h ****       __glibcxx_function_requires(_BinaryFunctionConcept<_Compare, bool,
 109:c:\program files\codesourcery\sourcery_codebench_lite_for_arm_eabi\bin\../lib/gcc/arm-none-eabi/4.6.3/../../../../arm-none-eabi/include/c++/4.6.3/bits\stl_algo.h **** 	    typename iterator_traits<_Iterator>::value_type,
 110:c:\program files\codesourcery\sourcery_codebench_lite_for_arm_eabi\bin\../lib/gcc/arm-none-eabi/4.6.3/../../../../arm-none-eabi/include/c++/4.6.3/bits\stl_algo.h **** 	    typename iterator_traits<_Iterator>::value_type>)
 111:c:\program files\codesourcery\sourcery_codebench_lite_for_arm_eabi\bin\../lib/gcc/arm-none-eabi/4.6.3/../../../../arm-none-eabi/include/c++/4.6.3/bits\stl_algo.h **** 
 112:c:\program files\codesourcery\sourcery_codebench_lite_for_arm_eabi\bin\../lib/gcc/arm-none-eabi/4.6.3/../../../../arm-none-eabi/include/c++/4.6.3/bits\stl_algo.h ****       if (__comp(*__a, *__b))
 113:c:\program files\codesourcery\sourcery_codebench_lite_for_arm_eabi\bin\../lib/gcc/arm-none-eabi/4.6.3/../../../../arm-none-eabi/include/c++/4.6.3/bits\stl_algo.h **** 	{
 114:c:\program files\codesourcery\sourcery_codebench_lite_for_arm_eabi\bin\../lib/gcc/arm-none-eabi/4.6.3/../../../../arm-none-eabi/include/c++/4.6.3/bits\stl_algo.h **** 	  if (__comp(*__b, *__c))
 115:c:\program files\codesourcery\sourcery_codebench_lite_for_arm_eabi\bin\../lib/gcc/arm-none-eabi/4.6.3/../../../../arm-none-eabi/include/c++/4.6.3/bits\stl_algo.h **** 	    std::iter_swap(__a, __b);
 116:c:\program files\codesourcery\sourcery_codebench_lite_for_arm_eabi\bin\../lib/gcc/arm-none-eabi/4.6.3/../../../../arm-none-eabi/include/c++/4.6.3/bits\stl_algo.h **** 	  else if (__comp(*__a, *__c))
 117:c:\program files\codesourcery\sourcery_codebench_lite_for_arm_eabi\bin\../lib/gcc/arm-none-eabi/4.6.3/../../../../arm-none-eabi/include/c++/4.6.3/bits\stl_algo.h **** 	    std::iter_swap(__a, __c);
 118:c:\program files\codesourcery\sourcery_codebench_lite_for_arm_eabi\bin\../lib/gcc/arm-none-eabi/4.6.3/../../../../arm-none-eabi/include/c++/4.6.3/bits\stl_algo.h **** 	}
 119:c:\program files\codesourcery\sourcery_codebench_lite_for_arm_eabi\bin\../lib/gcc/arm-none-eabi/4.6.3/../../../../arm-none-eabi/include/c++/4.6.3/bits\stl_algo.h ****       else if (__comp(*__a, *__c))
 120:c:\program files\codesourcery\sourcery_codebench_lite_for_arm_eabi\bin\../lib/gcc/arm-none-eabi/4.6.3/../../../../arm-none-eabi/include/c++/4.6.3/bits\stl_algo.h **** 	return;
 121:c:\program files\codesourcery\sourcery_codebench_lite_for_arm_eabi\bin\../lib/gcc/arm-none-eabi/4.6.3/../../../../arm-none-eabi/include/c++/4.6.3/bits\stl_algo.h ****       else if (__comp(*__b, *__c))
 122:c:\program files\codesourcery\sourcery_codebench_lite_for_arm_eabi\bin\../lib/gcc/arm-none-eabi/4.6.3/../../../../arm-none-eabi/include/c++/4.6.3/bits\stl_algo.h **** 	std::iter_swap(__a, __c);
 123:c:\program files\codesourcery\sourcery_codebench_lite_for_arm_eabi\bin\../lib/gcc/arm-none-eabi/4.6.3/../../../../arm-none-eabi/include/c++/4.6.3/bits\stl_algo.h ****       else
 124:c:\program files\codesourcery\sourcery_codebench_lite_for_arm_eabi\bin\../lib/gcc/arm-none-eabi/4.6.3/../../../../arm-none-eabi/include/c++/4.6.3/bits\stl_algo.h **** 	std::iter_swap(__a, __b);
 125:c:\program files\codesourcery\sourcery_codebench_lite_for_arm_eabi\bin\../lib/gcc/arm-none-eabi/4.6.3/../../../../arm-none-eabi/include/c++/4.6.3/bits\stl_algo.h ****     }
 126:c:\program files\codesourcery\sourcery_codebench_lite_for_arm_eabi\bin\../lib/gcc/arm-none-eabi/4.6.3/../../../../arm-none-eabi/include/c++/4.6.3/bits\stl_algo.h **** 
 127:c:\program files\codesourcery\sourcery_codebench_lite_for_arm_eabi\bin\../lib/gcc/arm-none-eabi/4.6.3/../../../../arm-none-eabi/include/c++/4.6.3/bits\stl_algo.h ****   // for_each
 128:c:\program files\codesourcery\sourcery_codebench_lite_for_arm_eabi\bin\../lib/gcc/arm-none-eabi/4.6.3/../../../../arm-none-eabi/include/c++/4.6.3/bits\stl_algo.h **** 
 129:c:\program files\codesourcery\sourcery_codebench_lite_for_arm_eabi\bin\../lib/gcc/arm-none-eabi/4.6.3/../../../../arm-none-eabi/include/c++/4.6.3/bits\stl_algo.h ****   /// This is an overload used by find() for the Input Iterator case.
 130:c:\program files\codesourcery\sourcery_codebench_lite_for_arm_eabi\bin\../lib/gcc/arm-none-eabi/4.6.3/../../../../arm-none-eabi/include/c++/4.6.3/bits\stl_algo.h ****   template<typename _InputIterator, typename _Tp>
 131:c:\program files\codesourcery\sourcery_codebench_lite_for_arm_eabi\bin\../lib/gcc/arm-none-eabi/4.6.3/../../../../arm-none-eabi/include/c++/4.6.3/bits\stl_algo.h ****     inline _InputIterator
 132:c:\program files\codesourcery\sourcery_codebench_lite_for_arm_eabi\bin\../lib/gcc/arm-none-eabi/4.6.3/../../../../arm-none-eabi/include/c++/4.6.3/bits\stl_algo.h ****     __find(_InputIterator __first, _InputIterator __last,
 133:c:\program files\codesourcery\sourcery_codebench_lite_for_arm_eabi\bin\../lib/gcc/arm-none-eabi/4.6.3/../../../../arm-none-eabi/include/c++/4.6.3/bits\stl_algo.h **** 	   const _Tp& __val, input_iterator_tag)
 134:c:\program files\codesourcery\sourcery_codebench_lite_for_arm_eabi\bin\../lib/gcc/arm-none-eabi/4.6.3/../../../../arm-none-eabi/include/c++/4.6.3/bits\stl_algo.h ****     {
 135:c:\program files\codesourcery\sourcery_codebench_lite_for_arm_eabi\bin\../lib/gcc/arm-none-eabi/4.6.3/../../../../arm-none-eabi/include/c++/4.6.3/bits\stl_algo.h ****       while (__first != __last && !(*__first == __val))
 136:c:\program files\codesourcery\sourcery_codebench_lite_for_arm_eabi\bin\../lib/gcc/arm-none-eabi/4.6.3/../../../../arm-none-eabi/include/c++/4.6.3/bits\stl_algo.h **** 	++__first;
 137:c:\program files\codesourcery\sourcery_codebench_lite_for_arm_eabi\bin\../lib/gcc/arm-none-eabi/4.6.3/../../../../arm-none-eabi/include/c++/4.6.3/bits\stl_algo.h ****       return __first;
 138:c:\program files\codesourcery\sourcery_codebench_lite_for_arm_eabi\bin\../lib/gcc/arm-none-eabi/4.6.3/../../../../arm-none-eabi/include/c++/4.6.3/bits\stl_algo.h ****     }
 139:c:\program files\codesourcery\sourcery_codebench_lite_for_arm_eabi\bin\../lib/gcc/arm-none-eabi/4.6.3/../../../../arm-none-eabi/include/c++/4.6.3/bits\stl_algo.h **** 
 140:c:\program files\codesourcery\sourcery_codebench_lite_for_arm_eabi\bin\../lib/gcc/arm-none-eabi/4.6.3/../../../../arm-none-eabi/include/c++/4.6.3/bits\stl_algo.h ****   /// This is an overload used by find_if() for the Input Iterator case.
 141:c:\program files\codesourcery\sourcery_codebench_lite_for_arm_eabi\bin\../lib/gcc/arm-none-eabi/4.6.3/../../../../arm-none-eabi/include/c++/4.6.3/bits\stl_algo.h ****   template<typename _InputIterator, typename _Predicate>
 142:c:\program files\codesourcery\sourcery_codebench_lite_for_arm_eabi\bin\../lib/gcc/arm-none-eabi/4.6.3/../../../../arm-none-eabi/include/c++/4.6.3/bits\stl_algo.h ****     inline _InputIterator
 143:c:\program files\codesourcery\sourcery_codebench_lite_for_arm_eabi\bin\../lib/gcc/arm-none-eabi/4.6.3/../../../../arm-none-eabi/include/c++/4.6.3/bits\stl_algo.h ****     __find_if(_InputIterator __first, _InputIterator __last,
 144:c:\program files\codesourcery\sourcery_codebench_lite_for_arm_eabi\bin\../lib/gcc/arm-none-eabi/4.6.3/../../../../arm-none-eabi/include/c++/4.6.3/bits\stl_algo.h **** 	      _Predicate __pred, input_iterator_tag)
 145:c:\program files\codesourcery\sourcery_codebench_lite_for_arm_eabi\bin\../lib/gcc/arm-none-eabi/4.6.3/../../../../arm-none-eabi/include/c++/4.6.3/bits\stl_algo.h ****     {
 146:c:\program files\codesourcery\sourcery_codebench_lite_for_arm_eabi\bin\../lib/gcc/arm-none-eabi/4.6.3/../../../../arm-none-eabi/include/c++/4.6.3/bits\stl_algo.h ****       while (__first != __last && !bool(__pred(*__first)))
 147:c:\program files\codesourcery\sourcery_codebench_lite_for_arm_eabi\bin\../lib/gcc/arm-none-eabi/4.6.3/../../../../arm-none-eabi/include/c++/4.6.3/bits\stl_algo.h **** 	++__first;
 148:c:\program files\codesourcery\sourcery_codebench_lite_for_arm_eabi\bin\../lib/gcc/arm-none-eabi/4.6.3/../../../../arm-none-eabi/include/c++/4.6.3/bits\stl_algo.h ****       return __first;
 149:c:\program files\codesourcery\sourcery_codebench_lite_for_arm_eabi\bin\../lib/gcc/arm-none-eabi/4.6.3/../../../../arm-none-eabi/include/c++/4.6.3/bits\stl_algo.h ****     }
 150:c:\program files\codesourcery\sourcery_codebench_lite_for_arm_eabi\bin\../lib/gcc/arm-none-eabi/4.6.3/../../../../arm-none-eabi/include/c++/4.6.3/bits\stl_algo.h **** 
 151:c:\program files\codesourcery\sourcery_codebench_lite_for_arm_eabi\bin\../lib/gcc/arm-none-eabi/4.6.3/../../../../arm-none-eabi/include/c++/4.6.3/bits\stl_algo.h ****   /// This is an overload used by find() for the RAI case.
 152:c:\program files\codesourcery\sourcery_codebench_lite_for_arm_eabi\bin\../lib/gcc/arm-none-eabi/4.6.3/../../../../arm-none-eabi/include/c++/4.6.3/bits\stl_algo.h ****   template<typename _RandomAccessIterator, typename _Tp>
 153:c:\program files\codesourcery\sourcery_codebench_lite_for_arm_eabi\bin\../lib/gcc/arm-none-eabi/4.6.3/../../../../arm-none-eabi/include/c++/4.6.3/bits\stl_algo.h ****     _RandomAccessIterator
 154:c:\program files\codesourcery\sourcery_codebench_lite_for_arm_eabi\bin\../lib/gcc/arm-none-eabi/4.6.3/../../../../arm-none-eabi/include/c++/4.6.3/bits\stl_algo.h ****     __find(_RandomAccessIterator __first, _RandomAccessIterator __last,
 155:c:\program files\codesourcery\sourcery_codebench_lite_for_arm_eabi\bin\../lib/gcc/arm-none-eabi/4.6.3/../../../../arm-none-eabi/include/c++/4.6.3/bits\stl_algo.h **** 	   const _Tp& __val, random_access_iterator_tag)
 156:c:\program files\codesourcery\sourcery_codebench_lite_for_arm_eabi\bin\../lib/gcc/arm-none-eabi/4.6.3/../../../../arm-none-eabi/include/c++/4.6.3/bits\stl_algo.h ****     {
 157:c:\program files\codesourcery\sourcery_codebench_lite_for_arm_eabi\bin\../lib/gcc/arm-none-eabi/4.6.3/../../../../arm-none-eabi/include/c++/4.6.3/bits\stl_algo.h ****       typename iterator_traits<_RandomAccessIterator>::difference_type
 158:c:\program files\codesourcery\sourcery_codebench_lite_for_arm_eabi\bin\../lib/gcc/arm-none-eabi/4.6.3/../../../../arm-none-eabi/include/c++/4.6.3/bits\stl_algo.h **** 	__trip_count = (__last - __first) >> 2;
 159:c:\program files\codesourcery\sourcery_codebench_lite_for_arm_eabi\bin\../lib/gcc/arm-none-eabi/4.6.3/../../../../arm-none-eabi/include/c++/4.6.3/bits\stl_algo.h **** 
 160:c:\program files\codesourcery\sourcery_codebench_lite_for_arm_eabi\bin\../lib/gcc/arm-none-eabi/4.6.3/../../../../arm-none-eabi/include/c++/4.6.3/bits\stl_algo.h ****       for (; __trip_count > 0; --__trip_count)
 161:c:\program files\codesourcery\sourcery_codebench_lite_for_arm_eabi\bin\../lib/gcc/arm-none-eabi/4.6.3/../../../../arm-none-eabi/include/c++/4.6.3/bits\stl_algo.h **** 	{
 162:c:\program files\codesourcery\sourcery_codebench_lite_for_arm_eabi\bin\../lib/gcc/arm-none-eabi/4.6.3/../../../../arm-none-eabi/include/c++/4.6.3/bits\stl_algo.h **** 	  if (*__first == __val)
 163:c:\program files\codesourcery\sourcery_codebench_lite_for_arm_eabi\bin\../lib/gcc/arm-none-eabi/4.6.3/../../../../arm-none-eabi/include/c++/4.6.3/bits\stl_algo.h **** 	    return __first;
 164:c:\program files\codesourcery\sourcery_codebench_lite_for_arm_eabi\bin\../lib/gcc/arm-none-eabi/4.6.3/../../../../arm-none-eabi/include/c++/4.6.3/bits\stl_algo.h **** 	  ++__first;
 165:c:\program files\codesourcery\sourcery_codebench_lite_for_arm_eabi\bin\../lib/gcc/arm-none-eabi/4.6.3/../../../../arm-none-eabi/include/c++/4.6.3/bits\stl_algo.h **** 
 166:c:\program files\codesourcery\sourcery_codebench_lite_for_arm_eabi\bin\../lib/gcc/arm-none-eabi/4.6.3/../../../../arm-none-eabi/include/c++/4.6.3/bits\stl_algo.h **** 	  if (*__first == __val)
 167:c:\program files\codesourcery\sourcery_codebench_lite_for_arm_eabi\bin\../lib/gcc/arm-none-eabi/4.6.3/../../../../arm-none-eabi/include/c++/4.6.3/bits\stl_algo.h **** 	    return __first;
 168:c:\program files\codesourcery\sourcery_codebench_lite_for_arm_eabi\bin\../lib/gcc/arm-none-eabi/4.6.3/../../../../arm-none-eabi/include/c++/4.6.3/bits\stl_algo.h **** 	  ++__first;
 169:c:\program files\codesourcery\sourcery_codebench_lite_for_arm_eabi\bin\../lib/gcc/arm-none-eabi/4.6.3/../../../../arm-none-eabi/include/c++/4.6.3/bits\stl_algo.h **** 
 170:c:\program files\codesourcery\sourcery_codebench_lite_for_arm_eabi\bin\../lib/gcc/arm-none-eabi/4.6.3/../../../../arm-none-eabi/include/c++/4.6.3/bits\stl_algo.h **** 	  if (*__first == __val)
 171:c:\program files\codesourcery\sourcery_codebench_lite_for_arm_eabi\bin\../lib/gcc/arm-none-eabi/4.6.3/../../../../arm-none-eabi/include/c++/4.6.3/bits\stl_algo.h **** 	    return __first;
 172:c:\program files\codesourcery\sourcery_codebench_lite_for_arm_eabi\bin\../lib/gcc/arm-none-eabi/4.6.3/../../../../arm-none-eabi/include/c++/4.6.3/bits\stl_algo.h **** 	  ++__first;
 173:c:\program files\codesourcery\sourcery_codebench_lite_for_arm_eabi\bin\../lib/gcc/arm-none-eabi/4.6.3/../../../../arm-none-eabi/include/c++/4.6.3/bits\stl_algo.h **** 
 174:c:\program files\codesourcery\sourcery_codebench_lite_for_arm_eabi\bin\../lib/gcc/arm-none-eabi/4.6.3/../../../../arm-none-eabi/include/c++/4.6.3/bits\stl_algo.h **** 	  if (*__first == __val)
 175:c:\program files\codesourcery\sourcery_codebench_lite_for_arm_eabi\bin\../lib/gcc/arm-none-eabi/4.6.3/../../../../arm-none-eabi/include/c++/4.6.3/bits\stl_algo.h **** 	    return __first;
 176:c:\program files\codesourcery\sourcery_codebench_lite_for_arm_eabi\bin\../lib/gcc/arm-none-eabi/4.6.3/../../../../arm-none-eabi/include/c++/4.6.3/bits\stl_algo.h **** 	  ++__first;
 177:c:\program files\codesourcery\sourcery_codebench_lite_for_arm_eabi\bin\../lib/gcc/arm-none-eabi/4.6.3/../../../../arm-none-eabi/include/c++/4.6.3/bits\stl_algo.h **** 	}
 178:c:\program files\codesourcery\sourcery_codebench_lite_for_arm_eabi\bin\../lib/gcc/arm-none-eabi/4.6.3/../../../../arm-none-eabi/include/c++/4.6.3/bits\stl_algo.h **** 
 179:c:\program files\codesourcery\sourcery_codebench_lite_for_arm_eabi\bin\../lib/gcc/arm-none-eabi/4.6.3/../../../../arm-none-eabi/include/c++/4.6.3/bits\stl_algo.h ****       switch (__last - __first)
 180:c:\program files\codesourcery\sourcery_codebench_lite_for_arm_eabi\bin\../lib/gcc/arm-none-eabi/4.6.3/../../../../arm-none-eabi/include/c++/4.6.3/bits\stl_algo.h **** 	{
 181:c:\program files\codesourcery\sourcery_codebench_lite_for_arm_eabi\bin\../lib/gcc/arm-none-eabi/4.6.3/../../../../arm-none-eabi/include/c++/4.6.3/bits\stl_algo.h **** 	case 3:
 182:c:\program files\codesourcery\sourcery_codebench_lite_for_arm_eabi\bin\../lib/gcc/arm-none-eabi/4.6.3/../../../../arm-none-eabi/include/c++/4.6.3/bits\stl_algo.h **** 	  if (*__first == __val)
 183:c:\program files\codesourcery\sourcery_codebench_lite_for_arm_eabi\bin\../lib/gcc/arm-none-eabi/4.6.3/../../../../arm-none-eabi/include/c++/4.6.3/bits\stl_algo.h **** 	    return __first;
 184:c:\program files\codesourcery\sourcery_codebench_lite_for_arm_eabi\bin\../lib/gcc/arm-none-eabi/4.6.3/../../../../arm-none-eabi/include/c++/4.6.3/bits\stl_algo.h **** 	  ++__first;
 185:c:\program files\codesourcery\sourcery_codebench_lite_for_arm_eabi\bin\../lib/gcc/arm-none-eabi/4.6.3/../../../../arm-none-eabi/include/c++/4.6.3/bits\stl_algo.h **** 	case 2:
 186:c:\program files\codesourcery\sourcery_codebench_lite_for_arm_eabi\bin\../lib/gcc/arm-none-eabi/4.6.3/../../../../arm-none-eabi/include/c++/4.6.3/bits\stl_algo.h **** 	  if (*__first == __val)
 187:c:\program files\codesourcery\sourcery_codebench_lite_for_arm_eabi\bin\../lib/gcc/arm-none-eabi/4.6.3/../../../../arm-none-eabi/include/c++/4.6.3/bits\stl_algo.h **** 	    return __first;
 188:c:\program files\codesourcery\sourcery_codebench_lite_for_arm_eabi\bin\../lib/gcc/arm-none-eabi/4.6.3/../../../../arm-none-eabi/include/c++/4.6.3/bits\stl_algo.h **** 	  ++__first;
 189:c:\program files\codesourcery\sourcery_codebench_lite_for_arm_eabi\bin\../lib/gcc/arm-none-eabi/4.6.3/../../../../arm-none-eabi/include/c++/4.6.3/bits\stl_algo.h **** 	case 1:
 190:c:\program files\codesourcery\sourcery_codebench_lite_for_arm_eabi\bin\../lib/gcc/arm-none-eabi/4.6.3/../../../../arm-none-eabi/include/c++/4.6.3/bits\stl_algo.h **** 	  if (*__first == __val)
 191:c:\program files\codesourcery\sourcery_codebench_lite_for_arm_eabi\bin\../lib/gcc/arm-none-eabi/4.6.3/../../../../arm-none-eabi/include/c++/4.6.3/bits\stl_algo.h **** 	    return __first;
 192:c:\program files\codesourcery\sourcery_codebench_lite_for_arm_eabi\bin\../lib/gcc/arm-none-eabi/4.6.3/../../../../arm-none-eabi/include/c++/4.6.3/bits\stl_algo.h **** 	  ++__first;
 193:c:\program files\codesourcery\sourcery_codebench_lite_for_arm_eabi\bin\../lib/gcc/arm-none-eabi/4.6.3/../../../../arm-none-eabi/include/c++/4.6.3/bits\stl_algo.h **** 	case 0:
 194:c:\program files\codesourcery\sourcery_codebench_lite_for_arm_eabi\bin\../lib/gcc/arm-none-eabi/4.6.3/../../../../arm-none-eabi/include/c++/4.6.3/bits\stl_algo.h **** 	default:
 195:c:\program files\codesourcery\sourcery_codebench_lite_for_arm_eabi\bin\../lib/gcc/arm-none-eabi/4.6.3/../../../../arm-none-eabi/include/c++/4.6.3/bits\stl_algo.h **** 	  return __last;
 196:c:\program files\codesourcery\sourcery_codebench_lite_for_arm_eabi\bin\../lib/gcc/arm-none-eabi/4.6.3/../../../../arm-none-eabi/include/c++/4.6.3/bits\stl_algo.h **** 	}
 197:c:\program files\codesourcery\sourcery_codebench_lite_for_arm_eabi\bin\../lib/gcc/arm-none-eabi/4.6.3/../../../../arm-none-eabi/include/c++/4.6.3/bits\stl_algo.h ****     }
 198:c:\program files\codesourcery\sourcery_codebench_lite_for_arm_eabi\bin\../lib/gcc/arm-none-eabi/4.6.3/../../../../arm-none-eabi/include/c++/4.6.3/bits\stl_algo.h **** 
 199:c:\program files\codesourcery\sourcery_codebench_lite_for_arm_eabi\bin\../lib/gcc/arm-none-eabi/4.6.3/../../../../arm-none-eabi/include/c++/4.6.3/bits\stl_algo.h ****   /// This is an overload used by find_if() for the RAI case.
 200:c:\program files\codesourcery\sourcery_codebench_lite_for_arm_eabi\bin\../lib/gcc/arm-none-eabi/4.6.3/../../../../arm-none-eabi/include/c++/4.6.3/bits\stl_algo.h ****   template<typename _RandomAccessIterator, typename _Predicate>
 201:c:\program files\codesourcery\sourcery_codebench_lite_for_arm_eabi\bin\../lib/gcc/arm-none-eabi/4.6.3/../../../../arm-none-eabi/include/c++/4.6.3/bits\stl_algo.h ****     _RandomAccessIterator
 202:c:\program files\codesourcery\sourcery_codebench_lite_for_arm_eabi\bin\../lib/gcc/arm-none-eabi/4.6.3/../../../../arm-none-eabi/include/c++/4.6.3/bits\stl_algo.h ****     __find_if(_RandomAccessIterator __first, _RandomAccessIterator __last,
 203:c:\program files\codesourcery\sourcery_codebench_lite_for_arm_eabi\bin\../lib/gcc/arm-none-eabi/4.6.3/../../../../arm-none-eabi/include/c++/4.6.3/bits\stl_algo.h **** 	      _Predicate __pred, random_access_iterator_tag)
 204:c:\program files\codesourcery\sourcery_codebench_lite_for_arm_eabi\bin\../lib/gcc/arm-none-eabi/4.6.3/../../../../arm-none-eabi/include/c++/4.6.3/bits\stl_algo.h ****     {
 205:c:\program files\codesourcery\sourcery_codebench_lite_for_arm_eabi\bin\../lib/gcc/arm-none-eabi/4.6.3/../../../../arm-none-eabi/include/c++/4.6.3/bits\stl_algo.h ****       typename iterator_traits<_RandomAccessIterator>::difference_type
 206:c:\program files\codesourcery\sourcery_codebench_lite_for_arm_eabi\bin\../lib/gcc/arm-none-eabi/4.6.3/../../../../arm-none-eabi/include/c++/4.6.3/bits\stl_algo.h **** 	__trip_count = (__last - __first) >> 2;
 207:c:\program files\codesourcery\sourcery_codebench_lite_for_arm_eabi\bin\../lib/gcc/arm-none-eabi/4.6.3/../../../../arm-none-eabi/include/c++/4.6.3/bits\stl_algo.h **** 
 208:c:\program files\codesourcery\sourcery_codebench_lite_for_arm_eabi\bin\../lib/gcc/arm-none-eabi/4.6.3/../../../../arm-none-eabi/include/c++/4.6.3/bits\stl_algo.h ****       for (; __trip_count > 0; --__trip_count)
 209:c:\program files\codesourcery\sourcery_codebench_lite_for_arm_eabi\bin\../lib/gcc/arm-none-eabi/4.6.3/../../../../arm-none-eabi/include/c++/4.6.3/bits\stl_algo.h **** 	{
 210:c:\program files\codesourcery\sourcery_codebench_lite_for_arm_eabi\bin\../lib/gcc/arm-none-eabi/4.6.3/../../../../arm-none-eabi/include/c++/4.6.3/bits\stl_algo.h **** 	  if (__pred(*__first))
 211:c:\program files\codesourcery\sourcery_codebench_lite_for_arm_eabi\bin\../lib/gcc/arm-none-eabi/4.6.3/../../../../arm-none-eabi/include/c++/4.6.3/bits\stl_algo.h **** 	    return __first;
 212:c:\program files\codesourcery\sourcery_codebench_lite_for_arm_eabi\bin\../lib/gcc/arm-none-eabi/4.6.3/../../../../arm-none-eabi/include/c++/4.6.3/bits\stl_algo.h **** 	  ++__first;
 213:c:\program files\codesourcery\sourcery_codebench_lite_for_arm_eabi\bin\../lib/gcc/arm-none-eabi/4.6.3/../../../../arm-none-eabi/include/c++/4.6.3/bits\stl_algo.h **** 
 214:c:\program files\codesourcery\sourcery_codebench_lite_for_arm_eabi\bin\../lib/gcc/arm-none-eabi/4.6.3/../../../../arm-none-eabi/include/c++/4.6.3/bits\stl_algo.h **** 	  if (__pred(*__first))
 215:c:\program files\codesourcery\sourcery_codebench_lite_for_arm_eabi\bin\../lib/gcc/arm-none-eabi/4.6.3/../../../../arm-none-eabi/include/c++/4.6.3/bits\stl_algo.h **** 	    return __first;
 216:c:\program files\codesourcery\sourcery_codebench_lite_for_arm_eabi\bin\../lib/gcc/arm-none-eabi/4.6.3/../../../../arm-none-eabi/include/c++/4.6.3/bits\stl_algo.h **** 	  ++__first;
 217:c:\program files\codesourcery\sourcery_codebench_lite_for_arm_eabi\bin\../lib/gcc/arm-none-eabi/4.6.3/../../../../arm-none-eabi/include/c++/4.6.3/bits\stl_algo.h **** 
 218:c:\program files\codesourcery\sourcery_codebench_lite_for_arm_eabi\bin\../lib/gcc/arm-none-eabi/4.6.3/../../../../arm-none-eabi/include/c++/4.6.3/bits\stl_algo.h **** 	  if (__pred(*__first))
 219:c:\program files\codesourcery\sourcery_codebench_lite_for_arm_eabi\bin\../lib/gcc/arm-none-eabi/4.6.3/../../../../arm-none-eabi/include/c++/4.6.3/bits\stl_algo.h **** 	    return __first;
 220:c:\program files\codesourcery\sourcery_codebench_lite_for_arm_eabi\bin\../lib/gcc/arm-none-eabi/4.6.3/../../../../arm-none-eabi/include/c++/4.6.3/bits\stl_algo.h **** 	  ++__first;
 221:c:\program files\codesourcery\sourcery_codebench_lite_for_arm_eabi\bin\../lib/gcc/arm-none-eabi/4.6.3/../../../../arm-none-eabi/include/c++/4.6.3/bits\stl_algo.h **** 
 222:c:\program files\codesourcery\sourcery_codebench_lite_for_arm_eabi\bin\../lib/gcc/arm-none-eabi/4.6.3/../../../../arm-none-eabi/include/c++/4.6.3/bits\stl_algo.h **** 	  if (__pred(*__first))
 223:c:\program files\codesourcery\sourcery_codebench_lite_for_arm_eabi\bin\../lib/gcc/arm-none-eabi/4.6.3/../../../../arm-none-eabi/include/c++/4.6.3/bits\stl_algo.h **** 	    return __first;
 224:c:\program files\codesourcery\sourcery_codebench_lite_for_arm_eabi\bin\../lib/gcc/arm-none-eabi/4.6.3/../../../../arm-none-eabi/include/c++/4.6.3/bits\stl_algo.h **** 	  ++__first;
 225:c:\program files\codesourcery\sourcery_codebench_lite_for_arm_eabi\bin\../lib/gcc/arm-none-eabi/4.6.3/../../../../arm-none-eabi/include/c++/4.6.3/bits\stl_algo.h **** 	}
 226:c:\program files\codesourcery\sourcery_codebench_lite_for_arm_eabi\bin\../lib/gcc/arm-none-eabi/4.6.3/../../../../arm-none-eabi/include/c++/4.6.3/bits\stl_algo.h **** 
 227:c:\program files\codesourcery\sourcery_codebench_lite_for_arm_eabi\bin\../lib/gcc/arm-none-eabi/4.6.3/../../../../arm-none-eabi/include/c++/4.6.3/bits\stl_algo.h ****       switch (__last - __first)
 228:c:\program files\codesourcery\sourcery_codebench_lite_for_arm_eabi\bin\../lib/gcc/arm-none-eabi/4.6.3/../../../../arm-none-eabi/include/c++/4.6.3/bits\stl_algo.h **** 	{
 229:c:\program files\codesourcery\sourcery_codebench_lite_for_arm_eabi\bin\../lib/gcc/arm-none-eabi/4.6.3/../../../../arm-none-eabi/include/c++/4.6.3/bits\stl_algo.h **** 	case 3:
 230:c:\program files\codesourcery\sourcery_codebench_lite_for_arm_eabi\bin\../lib/gcc/arm-none-eabi/4.6.3/../../../../arm-none-eabi/include/c++/4.6.3/bits\stl_algo.h **** 	  if (__pred(*__first))
 231:c:\program files\codesourcery\sourcery_codebench_lite_for_arm_eabi\bin\../lib/gcc/arm-none-eabi/4.6.3/../../../../arm-none-eabi/include/c++/4.6.3/bits\stl_algo.h **** 	    return __first;
 232:c:\program files\codesourcery\sourcery_codebench_lite_for_arm_eabi\bin\../lib/gcc/arm-none-eabi/4.6.3/../../../../arm-none-eabi/include/c++/4.6.3/bits\stl_algo.h **** 	  ++__first;
 233:c:\program files\codesourcery\sourcery_codebench_lite_for_arm_eabi\bin\../lib/gcc/arm-none-eabi/4.6.3/../../../../arm-none-eabi/include/c++/4.6.3/bits\stl_algo.h **** 	case 2:
 234:c:\program files\codesourcery\sourcery_codebench_lite_for_arm_eabi\bin\../lib/gcc/arm-none-eabi/4.6.3/../../../../arm-none-eabi/include/c++/4.6.3/bits\stl_algo.h **** 	  if (__pred(*__first))
 235:c:\program files\codesourcery\sourcery_codebench_lite_for_arm_eabi\bin\../lib/gcc/arm-none-eabi/4.6.3/../../../../arm-none-eabi/include/c++/4.6.3/bits\stl_algo.h **** 	    return __first;
 236:c:\program files\codesourcery\sourcery_codebench_lite_for_arm_eabi\bin\../lib/gcc/arm-none-eabi/4.6.3/../../../../arm-none-eabi/include/c++/4.6.3/bits\stl_algo.h **** 	  ++__first;
 237:c:\program files\codesourcery\sourcery_codebench_lite_for_arm_eabi\bin\../lib/gcc/arm-none-eabi/4.6.3/../../../../arm-none-eabi/include/c++/4.6.3/bits\stl_algo.h **** 	case 1:
 238:c:\program files\codesourcery\sourcery_codebench_lite_for_arm_eabi\bin\../lib/gcc/arm-none-eabi/4.6.3/../../../../arm-none-eabi/include/c++/4.6.3/bits\stl_algo.h **** 	  if (__pred(*__first))
 239:c:\program files\codesourcery\sourcery_codebench_lite_for_arm_eabi\bin\../lib/gcc/arm-none-eabi/4.6.3/../../../../arm-none-eabi/include/c++/4.6.3/bits\stl_algo.h **** 	    return __first;
 240:c:\program files\codesourcery\sourcery_codebench_lite_for_arm_eabi\bin\../lib/gcc/arm-none-eabi/4.6.3/../../../../arm-none-eabi/include/c++/4.6.3/bits\stl_algo.h **** 	  ++__first;
 241:c:\program files\codesourcery\sourcery_codebench_lite_for_arm_eabi\bin\../lib/gcc/arm-none-eabi/4.6.3/../../../../arm-none-eabi/include/c++/4.6.3/bits\stl_algo.h **** 	case 0:
 242:c:\program files\codesourcery\sourcery_codebench_lite_for_arm_eabi\bin\../lib/gcc/arm-none-eabi/4.6.3/../../../../arm-none-eabi/include/c++/4.6.3/bits\stl_algo.h **** 	default:
 243:c:\program files\codesourcery\sourcery_codebench_lite_for_arm_eabi\bin\../lib/gcc/arm-none-eabi/4.6.3/../../../../arm-none-eabi/include/c++/4.6.3/bits\stl_algo.h **** 	  return __last;
 244:c:\program files\codesourcery\sourcery_codebench_lite_for_arm_eabi\bin\../lib/gcc/arm-none-eabi/4.6.3/../../../../arm-none-eabi/include/c++/4.6.3/bits\stl_algo.h **** 	}
 245:c:\program files\codesourcery\sourcery_codebench_lite_for_arm_eabi\bin\../lib/gcc/arm-none-eabi/4.6.3/../../../../arm-none-eabi/include/c++/4.6.3/bits\stl_algo.h ****     }
 246:c:\program files\codesourcery\sourcery_codebench_lite_for_arm_eabi\bin\../lib/gcc/arm-none-eabi/4.6.3/../../../../arm-none-eabi/include/c++/4.6.3/bits\stl_algo.h **** 
 247:c:\program files\codesourcery\sourcery_codebench_lite_for_arm_eabi\bin\../lib/gcc/arm-none-eabi/4.6.3/../../../../arm-none-eabi/include/c++/4.6.3/bits\stl_algo.h **** #ifdef __GXX_EXPERIMENTAL_CXX0X__
 248:c:\program files\codesourcery\sourcery_codebench_lite_for_arm_eabi\bin\../lib/gcc/arm-none-eabi/4.6.3/../../../../arm-none-eabi/include/c++/4.6.3/bits\stl_algo.h ****   /// This is an overload used by find_if_not() for the Input Iterator case.
 249:c:\program files\codesourcery\sourcery_codebench_lite_for_arm_eabi\bin\../lib/gcc/arm-none-eabi/4.6.3/../../../../arm-none-eabi/include/c++/4.6.3/bits\stl_algo.h ****   template<typename _InputIterator, typename _Predicate>
 250:c:\program files\codesourcery\sourcery_codebench_lite_for_arm_eabi\bin\../lib/gcc/arm-none-eabi/4.6.3/../../../../arm-none-eabi/include/c++/4.6.3/bits\stl_algo.h ****     inline _InputIterator
 251:c:\program files\codesourcery\sourcery_codebench_lite_for_arm_eabi\bin\../lib/gcc/arm-none-eabi/4.6.3/../../../../arm-none-eabi/include/c++/4.6.3/bits\stl_algo.h ****     __find_if_not(_InputIterator __first, _InputIterator __last,
 252:c:\program files\codesourcery\sourcery_codebench_lite_for_arm_eabi\bin\../lib/gcc/arm-none-eabi/4.6.3/../../../../arm-none-eabi/include/c++/4.6.3/bits\stl_algo.h **** 		  _Predicate __pred, input_iterator_tag)
 253:c:\program files\codesourcery\sourcery_codebench_lite_for_arm_eabi\bin\../lib/gcc/arm-none-eabi/4.6.3/../../../../arm-none-eabi/include/c++/4.6.3/bits\stl_algo.h ****     {
 254:c:\program files\codesourcery\sourcery_codebench_lite_for_arm_eabi\bin\../lib/gcc/arm-none-eabi/4.6.3/../../../../arm-none-eabi/include/c++/4.6.3/bits\stl_algo.h ****       while (__first != __last && bool(__pred(*__first)))
 255:c:\program files\codesourcery\sourcery_codebench_lite_for_arm_eabi\bin\../lib/gcc/arm-none-eabi/4.6.3/../../../../arm-none-eabi/include/c++/4.6.3/bits\stl_algo.h **** 	++__first;
 256:c:\program files\codesourcery\sourcery_codebench_lite_for_arm_eabi\bin\../lib/gcc/arm-none-eabi/4.6.3/../../../../arm-none-eabi/include/c++/4.6.3/bits\stl_algo.h ****       return __first;
 257:c:\program files\codesourcery\sourcery_codebench_lite_for_arm_eabi\bin\../lib/gcc/arm-none-eabi/4.6.3/../../../../arm-none-eabi/include/c++/4.6.3/bits\stl_algo.h ****     }
 258:c:\program files\codesourcery\sourcery_codebench_lite_for_arm_eabi\bin\../lib/gcc/arm-none-eabi/4.6.3/../../../../arm-none-eabi/include/c++/4.6.3/bits\stl_algo.h **** 
 259:c:\program files\codesourcery\sourcery_codebench_lite_for_arm_eabi\bin\../lib/gcc/arm-none-eabi/4.6.3/../../../../arm-none-eabi/include/c++/4.6.3/bits\stl_algo.h ****   /// This is an overload used by find_if_not() for the RAI case.
 260:c:\program files\codesourcery\sourcery_codebench_lite_for_arm_eabi\bin\../lib/gcc/arm-none-eabi/4.6.3/../../../../arm-none-eabi/include/c++/4.6.3/bits\stl_algo.h ****   template<typename _RandomAccessIterator, typename _Predicate>
 261:c:\program files\codesourcery\sourcery_codebench_lite_for_arm_eabi\bin\../lib/gcc/arm-none-eabi/4.6.3/../../../../arm-none-eabi/include/c++/4.6.3/bits\stl_algo.h ****     _RandomAccessIterator
 262:c:\program files\codesourcery\sourcery_codebench_lite_for_arm_eabi\bin\../lib/gcc/arm-none-eabi/4.6.3/../../../../arm-none-eabi/include/c++/4.6.3/bits\stl_algo.h ****     __find_if_not(_RandomAccessIterator __first, _RandomAccessIterator __last,
 263:c:\program files\codesourcery\sourcery_codebench_lite_for_arm_eabi\bin\../lib/gcc/arm-none-eabi/4.6.3/../../../../arm-none-eabi/include/c++/4.6.3/bits\stl_algo.h **** 		  _Predicate __pred, random_access_iterator_tag)
 264:c:\program files\codesourcery\sourcery_codebench_lite_for_arm_eabi\bin\../lib/gcc/arm-none-eabi/4.6.3/../../../../arm-none-eabi/include/c++/4.6.3/bits\stl_algo.h ****     {
 265:c:\program files\codesourcery\sourcery_codebench_lite_for_arm_eabi\bin\../lib/gcc/arm-none-eabi/4.6.3/../../../../arm-none-eabi/include/c++/4.6.3/bits\stl_algo.h ****       typename iterator_traits<_RandomAccessIterator>::difference_type
 266:c:\program files\codesourcery\sourcery_codebench_lite_for_arm_eabi\bin\../lib/gcc/arm-none-eabi/4.6.3/../../../../arm-none-eabi/include/c++/4.6.3/bits\stl_algo.h **** 	__trip_count = (__last - __first) >> 2;
 267:c:\program files\codesourcery\sourcery_codebench_lite_for_arm_eabi\bin\../lib/gcc/arm-none-eabi/4.6.3/../../../../arm-none-eabi/include/c++/4.6.3/bits\stl_algo.h **** 
 268:c:\program files\codesourcery\sourcery_codebench_lite_for_arm_eabi\bin\../lib/gcc/arm-none-eabi/4.6.3/../../../../arm-none-eabi/include/c++/4.6.3/bits\stl_algo.h ****       for (; __trip_count > 0; --__trip_count)
 269:c:\program files\codesourcery\sourcery_codebench_lite_for_arm_eabi\bin\../lib/gcc/arm-none-eabi/4.6.3/../../../../arm-none-eabi/include/c++/4.6.3/bits\stl_algo.h **** 	{
 270:c:\program files\codesourcery\sourcery_codebench_lite_for_arm_eabi\bin\../lib/gcc/arm-none-eabi/4.6.3/../../../../arm-none-eabi/include/c++/4.6.3/bits\stl_algo.h **** 	  if (!bool(__pred(*__first)))
 271:c:\program files\codesourcery\sourcery_codebench_lite_for_arm_eabi\bin\../lib/gcc/arm-none-eabi/4.6.3/../../../../arm-none-eabi/include/c++/4.6.3/bits\stl_algo.h **** 	    return __first;
 272:c:\program files\codesourcery\sourcery_codebench_lite_for_arm_eabi\bin\../lib/gcc/arm-none-eabi/4.6.3/../../../../arm-none-eabi/include/c++/4.6.3/bits\stl_algo.h **** 	  ++__first;
 273:c:\program files\codesourcery\sourcery_codebench_lite_for_arm_eabi\bin\../lib/gcc/arm-none-eabi/4.6.3/../../../../arm-none-eabi/include/c++/4.6.3/bits\stl_algo.h **** 
 274:c:\program files\codesourcery\sourcery_codebench_lite_for_arm_eabi\bin\../lib/gcc/arm-none-eabi/4.6.3/../../../../arm-none-eabi/include/c++/4.6.3/bits\stl_algo.h **** 	  if (!bool(__pred(*__first)))
 275:c:\program files\codesourcery\sourcery_codebench_lite_for_arm_eabi\bin\../lib/gcc/arm-none-eabi/4.6.3/../../../../arm-none-eabi/include/c++/4.6.3/bits\stl_algo.h **** 	    return __first;
 276:c:\program files\codesourcery\sourcery_codebench_lite_for_arm_eabi\bin\../lib/gcc/arm-none-eabi/4.6.3/../../../../arm-none-eabi/include/c++/4.6.3/bits\stl_algo.h **** 	  ++__first;
 277:c:\program files\codesourcery\sourcery_codebench_lite_for_arm_eabi\bin\../lib/gcc/arm-none-eabi/4.6.3/../../../../arm-none-eabi/include/c++/4.6.3/bits\stl_algo.h **** 
 278:c:\program files\codesourcery\sourcery_codebench_lite_for_arm_eabi\bin\../lib/gcc/arm-none-eabi/4.6.3/../../../../arm-none-eabi/include/c++/4.6.3/bits\stl_algo.h **** 	  if (!bool(__pred(*__first)))
 279:c:\program files\codesourcery\sourcery_codebench_lite_for_arm_eabi\bin\../lib/gcc/arm-none-eabi/4.6.3/../../../../arm-none-eabi/include/c++/4.6.3/bits\stl_algo.h **** 	    return __first;
 280:c:\program files\codesourcery\sourcery_codebench_lite_for_arm_eabi\bin\../lib/gcc/arm-none-eabi/4.6.3/../../../../arm-none-eabi/include/c++/4.6.3/bits\stl_algo.h **** 	  ++__first;
 281:c:\program files\codesourcery\sourcery_codebench_lite_for_arm_eabi\bin\../lib/gcc/arm-none-eabi/4.6.3/../../../../arm-none-eabi/include/c++/4.6.3/bits\stl_algo.h **** 
 282:c:\program files\codesourcery\sourcery_codebench_lite_for_arm_eabi\bin\../lib/gcc/arm-none-eabi/4.6.3/../../../../arm-none-eabi/include/c++/4.6.3/bits\stl_algo.h **** 	  if (!bool(__pred(*__first)))
 283:c:\program files\codesourcery\sourcery_codebench_lite_for_arm_eabi\bin\../lib/gcc/arm-none-eabi/4.6.3/../../../../arm-none-eabi/include/c++/4.6.3/bits\stl_algo.h **** 	    return __first;
 284:c:\program files\codesourcery\sourcery_codebench_lite_for_arm_eabi\bin\../lib/gcc/arm-none-eabi/4.6.3/../../../../arm-none-eabi/include/c++/4.6.3/bits\stl_algo.h **** 	  ++__first;
 285:c:\program files\codesourcery\sourcery_codebench_lite_for_arm_eabi\bin\../lib/gcc/arm-none-eabi/4.6.3/../../../../arm-none-eabi/include/c++/4.6.3/bits\stl_algo.h **** 	}
 286:c:\program files\codesourcery\sourcery_codebench_lite_for_arm_eabi\bin\../lib/gcc/arm-none-eabi/4.6.3/../../../../arm-none-eabi/include/c++/4.6.3/bits\stl_algo.h **** 
 287:c:\program files\codesourcery\sourcery_codebench_lite_for_arm_eabi\bin\../lib/gcc/arm-none-eabi/4.6.3/../../../../arm-none-eabi/include/c++/4.6.3/bits\stl_algo.h ****       switch (__last - __first)
 288:c:\program files\codesourcery\sourcery_codebench_lite_for_arm_eabi\bin\../lib/gcc/arm-none-eabi/4.6.3/../../../../arm-none-eabi/include/c++/4.6.3/bits\stl_algo.h **** 	{
 289:c:\program files\codesourcery\sourcery_codebench_lite_for_arm_eabi\bin\../lib/gcc/arm-none-eabi/4.6.3/../../../../arm-none-eabi/include/c++/4.6.3/bits\stl_algo.h **** 	case 3:
 290:c:\program files\codesourcery\sourcery_codebench_lite_for_arm_eabi\bin\../lib/gcc/arm-none-eabi/4.6.3/../../../../arm-none-eabi/include/c++/4.6.3/bits\stl_algo.h **** 	  if (!bool(__pred(*__first)))
 291:c:\program files\codesourcery\sourcery_codebench_lite_for_arm_eabi\bin\../lib/gcc/arm-none-eabi/4.6.3/../../../../arm-none-eabi/include/c++/4.6.3/bits\stl_algo.h **** 	    return __first;
 292:c:\program files\codesourcery\sourcery_codebench_lite_for_arm_eabi\bin\../lib/gcc/arm-none-eabi/4.6.3/../../../../arm-none-eabi/include/c++/4.6.3/bits\stl_algo.h **** 	  ++__first;
 293:c:\program files\codesourcery\sourcery_codebench_lite_for_arm_eabi\bin\../lib/gcc/arm-none-eabi/4.6.3/../../../../arm-none-eabi/include/c++/4.6.3/bits\stl_algo.h **** 	case 2:
 294:c:\program files\codesourcery\sourcery_codebench_lite_for_arm_eabi\bin\../lib/gcc/arm-none-eabi/4.6.3/../../../../arm-none-eabi/include/c++/4.6.3/bits\stl_algo.h **** 	  if (!bool(__pred(*__first)))
 295:c:\program files\codesourcery\sourcery_codebench_lite_for_arm_eabi\bin\../lib/gcc/arm-none-eabi/4.6.3/../../../../arm-none-eabi/include/c++/4.6.3/bits\stl_algo.h **** 	    return __first;
 296:c:\program files\codesourcery\sourcery_codebench_lite_for_arm_eabi\bin\../lib/gcc/arm-none-eabi/4.6.3/../../../../arm-none-eabi/include/c++/4.6.3/bits\stl_algo.h **** 	  ++__first;
 297:c:\program files\codesourcery\sourcery_codebench_lite_for_arm_eabi\bin\../lib/gcc/arm-none-eabi/4.6.3/../../../../arm-none-eabi/include/c++/4.6.3/bits\stl_algo.h **** 	case 1:
 298:c:\program files\codesourcery\sourcery_codebench_lite_for_arm_eabi\bin\../lib/gcc/arm-none-eabi/4.6.3/../../../../arm-none-eabi/include/c++/4.6.3/bits\stl_algo.h **** 	  if (!bool(__pred(*__first)))
 299:c:\program files\codesourcery\sourcery_codebench_lite_for_arm_eabi\bin\../lib/gcc/arm-none-eabi/4.6.3/../../../../arm-none-eabi/include/c++/4.6.3/bits\stl_algo.h **** 	    return __first;
 300:c:\program files\codesourcery\sourcery_codebench_lite_for_arm_eabi\bin\../lib/gcc/arm-none-eabi/4.6.3/../../../../arm-none-eabi/include/c++/4.6.3/bits\stl_algo.h **** 	  ++__first;
 301:c:\program files\codesourcery\sourcery_codebench_lite_for_arm_eabi\bin\../lib/gcc/arm-none-eabi/4.6.3/../../../../arm-none-eabi/include/c++/4.6.3/bits\stl_algo.h **** 	case 0:
 302:c:\program files\codesourcery\sourcery_codebench_lite_for_arm_eabi\bin\../lib/gcc/arm-none-eabi/4.6.3/../../../../arm-none-eabi/include/c++/4.6.3/bits\stl_algo.h **** 	default:
 303:c:\program files\codesourcery\sourcery_codebench_lite_for_arm_eabi\bin\../lib/gcc/arm-none-eabi/4.6.3/../../../../arm-none-eabi/include/c++/4.6.3/bits\stl_algo.h **** 	  return __last;
 304:c:\program files\codesourcery\sourcery_codebench_lite_for_arm_eabi\bin\../lib/gcc/arm-none-eabi/4.6.3/../../../../arm-none-eabi/include/c++/4.6.3/bits\stl_algo.h **** 	}
 305:c:\program files\codesourcery\sourcery_codebench_lite_for_arm_eabi\bin\../lib/gcc/arm-none-eabi/4.6.3/../../../../arm-none-eabi/include/c++/4.6.3/bits\stl_algo.h ****     }
 306:c:\program files\codesourcery\sourcery_codebench_lite_for_arm_eabi\bin\../lib/gcc/arm-none-eabi/4.6.3/../../../../arm-none-eabi/include/c++/4.6.3/bits\stl_algo.h **** #endif
 307:c:\program files\codesourcery\sourcery_codebench_lite_for_arm_eabi\bin\../lib/gcc/arm-none-eabi/4.6.3/../../../../arm-none-eabi/include/c++/4.6.3/bits\stl_algo.h **** 
 308:c:\program files\codesourcery\sourcery_codebench_lite_for_arm_eabi\bin\../lib/gcc/arm-none-eabi/4.6.3/../../../../arm-none-eabi/include/c++/4.6.3/bits\stl_algo.h ****   // set_difference
 309:c:\program files\codesourcery\sourcery_codebench_lite_for_arm_eabi\bin\../lib/gcc/arm-none-eabi/4.6.3/../../../../arm-none-eabi/include/c++/4.6.3/bits\stl_algo.h ****   // set_intersection
 310:c:\program files\codesourcery\sourcery_codebench_lite_for_arm_eabi\bin\../lib/gcc/arm-none-eabi/4.6.3/../../../../arm-none-eabi/include/c++/4.6.3/bits\stl_algo.h ****   // set_symmetric_difference
 311:c:\program files\codesourcery\sourcery_codebench_lite_for_arm_eabi\bin\../lib/gcc/arm-none-eabi/4.6.3/../../../../arm-none-eabi/include/c++/4.6.3/bits\stl_algo.h ****   // set_union
 312:c:\program files\codesourcery\sourcery_codebench_lite_for_arm_eabi\bin\../lib/gcc/arm-none-eabi/4.6.3/../../../../arm-none-eabi/include/c++/4.6.3/bits\stl_algo.h ****   // for_each
 313:c:\program files\codesourcery\sourcery_codebench_lite_for_arm_eabi\bin\../lib/gcc/arm-none-eabi/4.6.3/../../../../arm-none-eabi/include/c++/4.6.3/bits\stl_algo.h ****   // find
 314:c:\program files\codesourcery\sourcery_codebench_lite_for_arm_eabi\bin\../lib/gcc/arm-none-eabi/4.6.3/../../../../arm-none-eabi/include/c++/4.6.3/bits\stl_algo.h ****   // find_if
 315:c:\program files\codesourcery\sourcery_codebench_lite_for_arm_eabi\bin\../lib/gcc/arm-none-eabi/4.6.3/../../../../arm-none-eabi/include/c++/4.6.3/bits\stl_algo.h ****   // find_first_of
 316:c:\program files\codesourcery\sourcery_codebench_lite_for_arm_eabi\bin\../lib/gcc/arm-none-eabi/4.6.3/../../../../arm-none-eabi/include/c++/4.6.3/bits\stl_algo.h ****   // adjacent_find
 317:c:\program files\codesourcery\sourcery_codebench_lite_for_arm_eabi\bin\../lib/gcc/arm-none-eabi/4.6.3/../../../../arm-none-eabi/include/c++/4.6.3/bits\stl_algo.h ****   // count
 318:c:\program files\codesourcery\sourcery_codebench_lite_for_arm_eabi\bin\../lib/gcc/arm-none-eabi/4.6.3/../../../../arm-none-eabi/include/c++/4.6.3/bits\stl_algo.h ****   // count_if
 319:c:\program files\codesourcery\sourcery_codebench_lite_for_arm_eabi\bin\../lib/gcc/arm-none-eabi/4.6.3/../../../../arm-none-eabi/include/c++/4.6.3/bits\stl_algo.h ****   // search
 320:c:\program files\codesourcery\sourcery_codebench_lite_for_arm_eabi\bin\../lib/gcc/arm-none-eabi/4.6.3/../../../../arm-none-eabi/include/c++/4.6.3/bits\stl_algo.h **** 
 321:c:\program files\codesourcery\sourcery_codebench_lite_for_arm_eabi\bin\../lib/gcc/arm-none-eabi/4.6.3/../../../../arm-none-eabi/include/c++/4.6.3/bits\stl_algo.h ****   /**
 322:c:\program files\codesourcery\sourcery_codebench_lite_for_arm_eabi\bin\../lib/gcc/arm-none-eabi/4.6.3/../../../../arm-none-eabi/include/c++/4.6.3/bits\stl_algo.h ****    *  This is an uglified
 323:c:\program files\codesourcery\sourcery_codebench_lite_for_arm_eabi\bin\../lib/gcc/arm-none-eabi/4.6.3/../../../../arm-none-eabi/include/c++/4.6.3/bits\stl_algo.h ****    *  search_n(_ForwardIterator, _ForwardIterator, _Integer, const _Tp&)
 324:c:\program files\codesourcery\sourcery_codebench_lite_for_arm_eabi\bin\../lib/gcc/arm-none-eabi/4.6.3/../../../../arm-none-eabi/include/c++/4.6.3/bits\stl_algo.h ****    *  overloaded for forward iterators.
 325:c:\program files\codesourcery\sourcery_codebench_lite_for_arm_eabi\bin\../lib/gcc/arm-none-eabi/4.6.3/../../../../arm-none-eabi/include/c++/4.6.3/bits\stl_algo.h ****   */
 326:c:\program files\codesourcery\sourcery_codebench_lite_for_arm_eabi\bin\../lib/gcc/arm-none-eabi/4.6.3/../../../../arm-none-eabi/include/c++/4.6.3/bits\stl_algo.h ****   template<typename _ForwardIterator, typename _Integer, typename _Tp>
 327:c:\program files\codesourcery\sourcery_codebench_lite_for_arm_eabi\bin\../lib/gcc/arm-none-eabi/4.6.3/../../../../arm-none-eabi/include/c++/4.6.3/bits\stl_algo.h ****     _ForwardIterator
 328:c:\program files\codesourcery\sourcery_codebench_lite_for_arm_eabi\bin\../lib/gcc/arm-none-eabi/4.6.3/../../../../arm-none-eabi/include/c++/4.6.3/bits\stl_algo.h ****     __search_n(_ForwardIterator __first, _ForwardIterator __last,
 329:c:\program files\codesourcery\sourcery_codebench_lite_for_arm_eabi\bin\../lib/gcc/arm-none-eabi/4.6.3/../../../../arm-none-eabi/include/c++/4.6.3/bits\stl_algo.h **** 	       _Integer __count, const _Tp& __val,
 330:c:\program files\codesourcery\sourcery_codebench_lite_for_arm_eabi\bin\../lib/gcc/arm-none-eabi/4.6.3/../../../../arm-none-eabi/include/c++/4.6.3/bits\stl_algo.h **** 	       std::forward_iterator_tag)
 331:c:\program files\codesourcery\sourcery_codebench_lite_for_arm_eabi\bin\../lib/gcc/arm-none-eabi/4.6.3/../../../../arm-none-eabi/include/c++/4.6.3/bits\stl_algo.h ****     {
 332:c:\program files\codesourcery\sourcery_codebench_lite_for_arm_eabi\bin\../lib/gcc/arm-none-eabi/4.6.3/../../../../arm-none-eabi/include/c++/4.6.3/bits\stl_algo.h ****       __first = _GLIBCXX_STD_A::find(__first, __last, __val);
 333:c:\program files\codesourcery\sourcery_codebench_lite_for_arm_eabi\bin\../lib/gcc/arm-none-eabi/4.6.3/../../../../arm-none-eabi/include/c++/4.6.3/bits\stl_algo.h ****       while (__first != __last)
 334:c:\program files\codesourcery\sourcery_codebench_lite_for_arm_eabi\bin\../lib/gcc/arm-none-eabi/4.6.3/../../../../arm-none-eabi/include/c++/4.6.3/bits\stl_algo.h **** 	{
 335:c:\program files\codesourcery\sourcery_codebench_lite_for_arm_eabi\bin\../lib/gcc/arm-none-eabi/4.6.3/../../../../arm-none-eabi/include/c++/4.6.3/bits\stl_algo.h **** 	  typename iterator_traits<_ForwardIterator>::difference_type
 336:c:\program files\codesourcery\sourcery_codebench_lite_for_arm_eabi\bin\../lib/gcc/arm-none-eabi/4.6.3/../../../../arm-none-eabi/include/c++/4.6.3/bits\stl_algo.h **** 	    __n = __count;
 337:c:\program files\codesourcery\sourcery_codebench_lite_for_arm_eabi\bin\../lib/gcc/arm-none-eabi/4.6.3/../../../../arm-none-eabi/include/c++/4.6.3/bits\stl_algo.h **** 	  _ForwardIterator __i = __first;
 338:c:\program files\codesourcery\sourcery_codebench_lite_for_arm_eabi\bin\../lib/gcc/arm-none-eabi/4.6.3/../../../../arm-none-eabi/include/c++/4.6.3/bits\stl_algo.h **** 	  ++__i;
 339:c:\program files\codesourcery\sourcery_codebench_lite_for_arm_eabi\bin\../lib/gcc/arm-none-eabi/4.6.3/../../../../arm-none-eabi/include/c++/4.6.3/bits\stl_algo.h **** 	  while (__i != __last && __n != 1 && *__i == __val)
 340:c:\program files\codesourcery\sourcery_codebench_lite_for_arm_eabi\bin\../lib/gcc/arm-none-eabi/4.6.3/../../../../arm-none-eabi/include/c++/4.6.3/bits\stl_algo.h **** 	    {
 341:c:\program files\codesourcery\sourcery_codebench_lite_for_arm_eabi\bin\../lib/gcc/arm-none-eabi/4.6.3/../../../../arm-none-eabi/include/c++/4.6.3/bits\stl_algo.h **** 	      ++__i;
 342:c:\program files\codesourcery\sourcery_codebench_lite_for_arm_eabi\bin\../lib/gcc/arm-none-eabi/4.6.3/../../../../arm-none-eabi/include/c++/4.6.3/bits\stl_algo.h **** 	      --__n;
 343:c:\program files\codesourcery\sourcery_codebench_lite_for_arm_eabi\bin\../lib/gcc/arm-none-eabi/4.6.3/../../../../arm-none-eabi/include/c++/4.6.3/bits\stl_algo.h **** 	    }
 344:c:\program files\codesourcery\sourcery_codebench_lite_for_arm_eabi\bin\../lib/gcc/arm-none-eabi/4.6.3/../../../../arm-none-eabi/include/c++/4.6.3/bits\stl_algo.h **** 	  if (__n == 1)
 345:c:\program files\codesourcery\sourcery_codebench_lite_for_arm_eabi\bin\../lib/gcc/arm-none-eabi/4.6.3/../../../../arm-none-eabi/include/c++/4.6.3/bits\stl_algo.h **** 	    return __first;
 346:c:\program files\codesourcery\sourcery_codebench_lite_for_arm_eabi\bin\../lib/gcc/arm-none-eabi/4.6.3/../../../../arm-none-eabi/include/c++/4.6.3/bits\stl_algo.h **** 	  if (__i == __last)
 347:c:\program files\codesourcery\sourcery_codebench_lite_for_arm_eabi\bin\../lib/gcc/arm-none-eabi/4.6.3/../../../../arm-none-eabi/include/c++/4.6.3/bits\stl_algo.h **** 	    return __last;
 348:c:\program files\codesourcery\sourcery_codebench_lite_for_arm_eabi\bin\../lib/gcc/arm-none-eabi/4.6.3/../../../../arm-none-eabi/include/c++/4.6.3/bits\stl_algo.h **** 	  __first = _GLIBCXX_STD_A::find(++__i, __last, __val);
 349:c:\program files\codesourcery\sourcery_codebench_lite_for_arm_eabi\bin\../lib/gcc/arm-none-eabi/4.6.3/../../../../arm-none-eabi/include/c++/4.6.3/bits\stl_algo.h **** 	}
 350:c:\program files\codesourcery\sourcery_codebench_lite_for_arm_eabi\bin\../lib/gcc/arm-none-eabi/4.6.3/../../../../arm-none-eabi/include/c++/4.6.3/bits\stl_algo.h ****       return __last;
 351:c:\program files\codesourcery\sourcery_codebench_lite_for_arm_eabi\bin\../lib/gcc/arm-none-eabi/4.6.3/../../../../arm-none-eabi/include/c++/4.6.3/bits\stl_algo.h ****     }
 352:c:\program files\codesourcery\sourcery_codebench_lite_for_arm_eabi\bin\../lib/gcc/arm-none-eabi/4.6.3/../../../../arm-none-eabi/include/c++/4.6.3/bits\stl_algo.h **** 
 353:c:\program files\codesourcery\sourcery_codebench_lite_for_arm_eabi\bin\../lib/gcc/arm-none-eabi/4.6.3/../../../../arm-none-eabi/include/c++/4.6.3/bits\stl_algo.h ****   /**
 354:c:\program files\codesourcery\sourcery_codebench_lite_for_arm_eabi\bin\../lib/gcc/arm-none-eabi/4.6.3/../../../../arm-none-eabi/include/c++/4.6.3/bits\stl_algo.h ****    *  This is an uglified
 355:c:\program files\codesourcery\sourcery_codebench_lite_for_arm_eabi\bin\../lib/gcc/arm-none-eabi/4.6.3/../../../../arm-none-eabi/include/c++/4.6.3/bits\stl_algo.h ****    *  search_n(_ForwardIterator, _ForwardIterator, _Integer, const _Tp&)
 356:c:\program files\codesourcery\sourcery_codebench_lite_for_arm_eabi\bin\../lib/gcc/arm-none-eabi/4.6.3/../../../../arm-none-eabi/include/c++/4.6.3/bits\stl_algo.h ****    *  overloaded for random access iterators.
 357:c:\program files\codesourcery\sourcery_codebench_lite_for_arm_eabi\bin\../lib/gcc/arm-none-eabi/4.6.3/../../../../arm-none-eabi/include/c++/4.6.3/bits\stl_algo.h ****   */
 358:c:\program files\codesourcery\sourcery_codebench_lite_for_arm_eabi\bin\../lib/gcc/arm-none-eabi/4.6.3/../../../../arm-none-eabi/include/c++/4.6.3/bits\stl_algo.h ****   template<typename _RandomAccessIter, typename _Integer, typename _Tp>
 359:c:\program files\codesourcery\sourcery_codebench_lite_for_arm_eabi\bin\../lib/gcc/arm-none-eabi/4.6.3/../../../../arm-none-eabi/include/c++/4.6.3/bits\stl_algo.h ****     _RandomAccessIter
 360:c:\program files\codesourcery\sourcery_codebench_lite_for_arm_eabi\bin\../lib/gcc/arm-none-eabi/4.6.3/../../../../arm-none-eabi/include/c++/4.6.3/bits\stl_algo.h ****     __search_n(_RandomAccessIter __first, _RandomAccessIter __last,
 361:c:\program files\codesourcery\sourcery_codebench_lite_for_arm_eabi\bin\../lib/gcc/arm-none-eabi/4.6.3/../../../../arm-none-eabi/include/c++/4.6.3/bits\stl_algo.h **** 	       _Integer __count, const _Tp& __val, 
 362:c:\program files\codesourcery\sourcery_codebench_lite_for_arm_eabi\bin\../lib/gcc/arm-none-eabi/4.6.3/../../../../arm-none-eabi/include/c++/4.6.3/bits\stl_algo.h **** 	       std::random_access_iterator_tag)
 363:c:\program files\codesourcery\sourcery_codebench_lite_for_arm_eabi\bin\../lib/gcc/arm-none-eabi/4.6.3/../../../../arm-none-eabi/include/c++/4.6.3/bits\stl_algo.h ****     {
 364:c:\program files\codesourcery\sourcery_codebench_lite_for_arm_eabi\bin\../lib/gcc/arm-none-eabi/4.6.3/../../../../arm-none-eabi/include/c++/4.6.3/bits\stl_algo.h ****       
 365:c:\program files\codesourcery\sourcery_codebench_lite_for_arm_eabi\bin\../lib/gcc/arm-none-eabi/4.6.3/../../../../arm-none-eabi/include/c++/4.6.3/bits\stl_algo.h ****       typedef typename std::iterator_traits<_RandomAccessIter>::difference_type
 366:c:\program files\codesourcery\sourcery_codebench_lite_for_arm_eabi\bin\../lib/gcc/arm-none-eabi/4.6.3/../../../../arm-none-eabi/include/c++/4.6.3/bits\stl_algo.h **** 	_DistanceType;
 367:c:\program files\codesourcery\sourcery_codebench_lite_for_arm_eabi\bin\../lib/gcc/arm-none-eabi/4.6.3/../../../../arm-none-eabi/include/c++/4.6.3/bits\stl_algo.h **** 
 368:c:\program files\codesourcery\sourcery_codebench_lite_for_arm_eabi\bin\../lib/gcc/arm-none-eabi/4.6.3/../../../../arm-none-eabi/include/c++/4.6.3/bits\stl_algo.h ****       _DistanceType __tailSize = __last - __first;
 369:c:\program files\codesourcery\sourcery_codebench_lite_for_arm_eabi\bin\../lib/gcc/arm-none-eabi/4.6.3/../../../../arm-none-eabi/include/c++/4.6.3/bits\stl_algo.h ****       const _DistanceType __pattSize = __count;
 370:c:\program files\codesourcery\sourcery_codebench_lite_for_arm_eabi\bin\../lib/gcc/arm-none-eabi/4.6.3/../../../../arm-none-eabi/include/c++/4.6.3/bits\stl_algo.h **** 
 371:c:\program files\codesourcery\sourcery_codebench_lite_for_arm_eabi\bin\../lib/gcc/arm-none-eabi/4.6.3/../../../../arm-none-eabi/include/c++/4.6.3/bits\stl_algo.h ****       if (__tailSize < __pattSize)
 372:c:\program files\codesourcery\sourcery_codebench_lite_for_arm_eabi\bin\../lib/gcc/arm-none-eabi/4.6.3/../../../../arm-none-eabi/include/c++/4.6.3/bits\stl_algo.h ****         return __last;
 373:c:\program files\codesourcery\sourcery_codebench_lite_for_arm_eabi\bin\../lib/gcc/arm-none-eabi/4.6.3/../../../../arm-none-eabi/include/c++/4.6.3/bits\stl_algo.h **** 
 374:c:\program files\codesourcery\sourcery_codebench_lite_for_arm_eabi\bin\../lib/gcc/arm-none-eabi/4.6.3/../../../../arm-none-eabi/include/c++/4.6.3/bits\stl_algo.h ****       const _DistanceType __skipOffset = __pattSize - 1;
 375:c:\program files\codesourcery\sourcery_codebench_lite_for_arm_eabi\bin\../lib/gcc/arm-none-eabi/4.6.3/../../../../arm-none-eabi/include/c++/4.6.3/bits\stl_algo.h ****       _RandomAccessIter __lookAhead = __first + __skipOffset;
 376:c:\program files\codesourcery\sourcery_codebench_lite_for_arm_eabi\bin\../lib/gcc/arm-none-eabi/4.6.3/../../../../arm-none-eabi/include/c++/4.6.3/bits\stl_algo.h ****       __tailSize -= __pattSize;
 377:c:\program files\codesourcery\sourcery_codebench_lite_for_arm_eabi\bin\../lib/gcc/arm-none-eabi/4.6.3/../../../../arm-none-eabi/include/c++/4.6.3/bits\stl_algo.h **** 
 378:c:\program files\codesourcery\sourcery_codebench_lite_for_arm_eabi\bin\../lib/gcc/arm-none-eabi/4.6.3/../../../../arm-none-eabi/include/c++/4.6.3/bits\stl_algo.h ****       while (1) // the main loop...
 379:c:\program files\codesourcery\sourcery_codebench_lite_for_arm_eabi\bin\../lib/gcc/arm-none-eabi/4.6.3/../../../../arm-none-eabi/include/c++/4.6.3/bits\stl_algo.h **** 	{
 380:c:\program files\codesourcery\sourcery_codebench_lite_for_arm_eabi\bin\../lib/gcc/arm-none-eabi/4.6.3/../../../../arm-none-eabi/include/c++/4.6.3/bits\stl_algo.h **** 	  // __lookAhead here is always pointing to the last element of next 
 381:c:\program files\codesourcery\sourcery_codebench_lite_for_arm_eabi\bin\../lib/gcc/arm-none-eabi/4.6.3/../../../../arm-none-eabi/include/c++/4.6.3/bits\stl_algo.h **** 	  // possible match.
 382:c:\program files\codesourcery\sourcery_codebench_lite_for_arm_eabi\bin\../lib/gcc/arm-none-eabi/4.6.3/../../../../arm-none-eabi/include/c++/4.6.3/bits\stl_algo.h **** 	  while (!(*__lookAhead == __val)) // the skip loop...
 383:c:\program files\codesourcery\sourcery_codebench_lite_for_arm_eabi\bin\../lib/gcc/arm-none-eabi/4.6.3/../../../../arm-none-eabi/include/c++/4.6.3/bits\stl_algo.h **** 	    {
 384:c:\program files\codesourcery\sourcery_codebench_lite_for_arm_eabi\bin\../lib/gcc/arm-none-eabi/4.6.3/../../../../arm-none-eabi/include/c++/4.6.3/bits\stl_algo.h **** 	      if (__tailSize < __pattSize)
 385:c:\program files\codesourcery\sourcery_codebench_lite_for_arm_eabi\bin\../lib/gcc/arm-none-eabi/4.6.3/../../../../arm-none-eabi/include/c++/4.6.3/bits\stl_algo.h **** 		return __last;  // Failure
 386:c:\program files\codesourcery\sourcery_codebench_lite_for_arm_eabi\bin\../lib/gcc/arm-none-eabi/4.6.3/../../../../arm-none-eabi/include/c++/4.6.3/bits\stl_algo.h **** 	      __lookAhead += __pattSize;
 387:c:\program files\codesourcery\sourcery_codebench_lite_for_arm_eabi\bin\../lib/gcc/arm-none-eabi/4.6.3/../../../../arm-none-eabi/include/c++/4.6.3/bits\stl_algo.h **** 	      __tailSize -= __pattSize;
 388:c:\program files\codesourcery\sourcery_codebench_lite_for_arm_eabi\bin\../lib/gcc/arm-none-eabi/4.6.3/../../../../arm-none-eabi/include/c++/4.6.3/bits\stl_algo.h **** 	    }
 389:c:\program files\codesourcery\sourcery_codebench_lite_for_arm_eabi\bin\../lib/gcc/arm-none-eabi/4.6.3/../../../../arm-none-eabi/include/c++/4.6.3/bits\stl_algo.h **** 	  _DistanceType __remainder = __skipOffset;
 390:c:\program files\codesourcery\sourcery_codebench_lite_for_arm_eabi\bin\../lib/gcc/arm-none-eabi/4.6.3/../../../../arm-none-eabi/include/c++/4.6.3/bits\stl_algo.h **** 	  for (_RandomAccessIter __backTrack = __lookAhead - 1; 
 391:c:\program files\codesourcery\sourcery_codebench_lite_for_arm_eabi\bin\../lib/gcc/arm-none-eabi/4.6.3/../../../../arm-none-eabi/include/c++/4.6.3/bits\stl_algo.h **** 	       *__backTrack == __val; --__backTrack)
 392:c:\program files\codesourcery\sourcery_codebench_lite_for_arm_eabi\bin\../lib/gcc/arm-none-eabi/4.6.3/../../../../arm-none-eabi/include/c++/4.6.3/bits\stl_algo.h **** 	    {
 393:c:\program files\codesourcery\sourcery_codebench_lite_for_arm_eabi\bin\../lib/gcc/arm-none-eabi/4.6.3/../../../../arm-none-eabi/include/c++/4.6.3/bits\stl_algo.h **** 	      if (--__remainder == 0)
 394:c:\program files\codesourcery\sourcery_codebench_lite_for_arm_eabi\bin\../lib/gcc/arm-none-eabi/4.6.3/../../../../arm-none-eabi/include/c++/4.6.3/bits\stl_algo.h **** 		return (__lookAhead - __skipOffset); // Success
 395:c:\program files\codesourcery\sourcery_codebench_lite_for_arm_eabi\bin\../lib/gcc/arm-none-eabi/4.6.3/../../../../arm-none-eabi/include/c++/4.6.3/bits\stl_algo.h **** 	    }
 396:c:\program files\codesourcery\sourcery_codebench_lite_for_arm_eabi\bin\../lib/gcc/arm-none-eabi/4.6.3/../../../../arm-none-eabi/include/c++/4.6.3/bits\stl_algo.h **** 	  if (__remainder > __tailSize)
 397:c:\program files\codesourcery\sourcery_codebench_lite_for_arm_eabi\bin\../lib/gcc/arm-none-eabi/4.6.3/../../../../arm-none-eabi/include/c++/4.6.3/bits\stl_algo.h **** 	    return __last; // Failure
 398:c:\program files\codesourcery\sourcery_codebench_lite_for_arm_eabi\bin\../lib/gcc/arm-none-eabi/4.6.3/../../../../arm-none-eabi/include/c++/4.6.3/bits\stl_algo.h **** 	  __lookAhead += __remainder;
 399:c:\program files\codesourcery\sourcery_codebench_lite_for_arm_eabi\bin\../lib/gcc/arm-none-eabi/4.6.3/../../../../arm-none-eabi/include/c++/4.6.3/bits\stl_algo.h **** 	  __tailSize -= __remainder;
 400:c:\program files\codesourcery\sourcery_codebench_lite_for_arm_eabi\bin\../lib/gcc/arm-none-eabi/4.6.3/../../../../arm-none-eabi/include/c++/4.6.3/bits\stl_algo.h **** 	}
 401:c:\program files\codesourcery\sourcery_codebench_lite_for_arm_eabi\bin\../lib/gcc/arm-none-eabi/4.6.3/../../../../arm-none-eabi/include/c++/4.6.3/bits\stl_algo.h ****     }
 402:c:\program files\codesourcery\sourcery_codebench_lite_for_arm_eabi\bin\../lib/gcc/arm-none-eabi/4.6.3/../../../../arm-none-eabi/include/c++/4.6.3/bits\stl_algo.h **** 
 403:c:\program files\codesourcery\sourcery_codebench_lite_for_arm_eabi\bin\../lib/gcc/arm-none-eabi/4.6.3/../../../../arm-none-eabi/include/c++/4.6.3/bits\stl_algo.h ****   // search_n
 404:c:\program files\codesourcery\sourcery_codebench_lite_for_arm_eabi\bin\../lib/gcc/arm-none-eabi/4.6.3/../../../../arm-none-eabi/include/c++/4.6.3/bits\stl_algo.h **** 
 405:c:\program files\codesourcery\sourcery_codebench_lite_for_arm_eabi\bin\../lib/gcc/arm-none-eabi/4.6.3/../../../../arm-none-eabi/include/c++/4.6.3/bits\stl_algo.h ****   /**
 406:c:\program files\codesourcery\sourcery_codebench_lite_for_arm_eabi\bin\../lib/gcc/arm-none-eabi/4.6.3/../../../../arm-none-eabi/include/c++/4.6.3/bits\stl_algo.h ****    *  This is an uglified
 407:c:\program files\codesourcery\sourcery_codebench_lite_for_arm_eabi\bin\../lib/gcc/arm-none-eabi/4.6.3/../../../../arm-none-eabi/include/c++/4.6.3/bits\stl_algo.h ****    *  search_n(_ForwardIterator, _ForwardIterator, _Integer, const _Tp&,
 408:c:\program files\codesourcery\sourcery_codebench_lite_for_arm_eabi\bin\../lib/gcc/arm-none-eabi/4.6.3/../../../../arm-none-eabi/include/c++/4.6.3/bits\stl_algo.h ****    *	       _BinaryPredicate)
 409:c:\program files\codesourcery\sourcery_codebench_lite_for_arm_eabi\bin\../lib/gcc/arm-none-eabi/4.6.3/../../../../arm-none-eabi/include/c++/4.6.3/bits\stl_algo.h ****    *  overloaded for forward iterators.
 410:c:\program files\codesourcery\sourcery_codebench_lite_for_arm_eabi\bin\../lib/gcc/arm-none-eabi/4.6.3/../../../../arm-none-eabi/include/c++/4.6.3/bits\stl_algo.h ****   */
 411:c:\program files\codesourcery\sourcery_codebench_lite_for_arm_eabi\bin\../lib/gcc/arm-none-eabi/4.6.3/../../../../arm-none-eabi/include/c++/4.6.3/bits\stl_algo.h ****   template<typename _ForwardIterator, typename _Integer, typename _Tp,
 412:c:\program files\codesourcery\sourcery_codebench_lite_for_arm_eabi\bin\../lib/gcc/arm-none-eabi/4.6.3/../../../../arm-none-eabi/include/c++/4.6.3/bits\stl_algo.h ****            typename _BinaryPredicate>
 413:c:\program files\codesourcery\sourcery_codebench_lite_for_arm_eabi\bin\../lib/gcc/arm-none-eabi/4.6.3/../../../../arm-none-eabi/include/c++/4.6.3/bits\stl_algo.h ****     _ForwardIterator
 414:c:\program files\codesourcery\sourcery_codebench_lite_for_arm_eabi\bin\../lib/gcc/arm-none-eabi/4.6.3/../../../../arm-none-eabi/include/c++/4.6.3/bits\stl_algo.h ****     __search_n(_ForwardIterator __first, _ForwardIterator __last,
 415:c:\program files\codesourcery\sourcery_codebench_lite_for_arm_eabi\bin\../lib/gcc/arm-none-eabi/4.6.3/../../../../arm-none-eabi/include/c++/4.6.3/bits\stl_algo.h **** 	       _Integer __count, const _Tp& __val,
 416:c:\program files\codesourcery\sourcery_codebench_lite_for_arm_eabi\bin\../lib/gcc/arm-none-eabi/4.6.3/../../../../arm-none-eabi/include/c++/4.6.3/bits\stl_algo.h **** 	       _BinaryPredicate __binary_pred, std::forward_iterator_tag)
 417:c:\program files\codesourcery\sourcery_codebench_lite_for_arm_eabi\bin\../lib/gcc/arm-none-eabi/4.6.3/../../../../arm-none-eabi/include/c++/4.6.3/bits\stl_algo.h ****     {
 418:c:\program files\codesourcery\sourcery_codebench_lite_for_arm_eabi\bin\../lib/gcc/arm-none-eabi/4.6.3/../../../../arm-none-eabi/include/c++/4.6.3/bits\stl_algo.h ****       while (__first != __last && !bool(__binary_pred(*__first, __val)))
 419:c:\program files\codesourcery\sourcery_codebench_lite_for_arm_eabi\bin\../lib/gcc/arm-none-eabi/4.6.3/../../../../arm-none-eabi/include/c++/4.6.3/bits\stl_algo.h ****         ++__first;
 420:c:\program files\codesourcery\sourcery_codebench_lite_for_arm_eabi\bin\../lib/gcc/arm-none-eabi/4.6.3/../../../../arm-none-eabi/include/c++/4.6.3/bits\stl_algo.h **** 
 421:c:\program files\codesourcery\sourcery_codebench_lite_for_arm_eabi\bin\../lib/gcc/arm-none-eabi/4.6.3/../../../../arm-none-eabi/include/c++/4.6.3/bits\stl_algo.h ****       while (__first != __last)
 422:c:\program files\codesourcery\sourcery_codebench_lite_for_arm_eabi\bin\../lib/gcc/arm-none-eabi/4.6.3/../../../../arm-none-eabi/include/c++/4.6.3/bits\stl_algo.h **** 	{
 423:c:\program files\codesourcery\sourcery_codebench_lite_for_arm_eabi\bin\../lib/gcc/arm-none-eabi/4.6.3/../../../../arm-none-eabi/include/c++/4.6.3/bits\stl_algo.h **** 	  typename iterator_traits<_ForwardIterator>::difference_type
 424:c:\program files\codesourcery\sourcery_codebench_lite_for_arm_eabi\bin\../lib/gcc/arm-none-eabi/4.6.3/../../../../arm-none-eabi/include/c++/4.6.3/bits\stl_algo.h **** 	    __n = __count;
 425:c:\program files\codesourcery\sourcery_codebench_lite_for_arm_eabi\bin\../lib/gcc/arm-none-eabi/4.6.3/../../../../arm-none-eabi/include/c++/4.6.3/bits\stl_algo.h **** 	  _ForwardIterator __i = __first;
 426:c:\program files\codesourcery\sourcery_codebench_lite_for_arm_eabi\bin\../lib/gcc/arm-none-eabi/4.6.3/../../../../arm-none-eabi/include/c++/4.6.3/bits\stl_algo.h **** 	  ++__i;
 427:c:\program files\codesourcery\sourcery_codebench_lite_for_arm_eabi\bin\../lib/gcc/arm-none-eabi/4.6.3/../../../../arm-none-eabi/include/c++/4.6.3/bits\stl_algo.h **** 	  while (__i != __last && __n != 1 && bool(__binary_pred(*__i, __val)))
 428:c:\program files\codesourcery\sourcery_codebench_lite_for_arm_eabi\bin\../lib/gcc/arm-none-eabi/4.6.3/../../../../arm-none-eabi/include/c++/4.6.3/bits\stl_algo.h **** 	    {
 429:c:\program files\codesourcery\sourcery_codebench_lite_for_arm_eabi\bin\../lib/gcc/arm-none-eabi/4.6.3/../../../../arm-none-eabi/include/c++/4.6.3/bits\stl_algo.h **** 	      ++__i;
 430:c:\program files\codesourcery\sourcery_codebench_lite_for_arm_eabi\bin\../lib/gcc/arm-none-eabi/4.6.3/../../../../arm-none-eabi/include/c++/4.6.3/bits\stl_algo.h **** 	      --__n;
 431:c:\program files\codesourcery\sourcery_codebench_lite_for_arm_eabi\bin\../lib/gcc/arm-none-eabi/4.6.3/../../../../arm-none-eabi/include/c++/4.6.3/bits\stl_algo.h **** 	    }
 432:c:\program files\codesourcery\sourcery_codebench_lite_for_arm_eabi\bin\../lib/gcc/arm-none-eabi/4.6.3/../../../../arm-none-eabi/include/c++/4.6.3/bits\stl_algo.h **** 	  if (__n == 1)
 433:c:\program files\codesourcery\sourcery_codebench_lite_for_arm_eabi\bin\../lib/gcc/arm-none-eabi/4.6.3/../../../../arm-none-eabi/include/c++/4.6.3/bits\stl_algo.h **** 	    return __first;
 434:c:\program files\codesourcery\sourcery_codebench_lite_for_arm_eabi\bin\../lib/gcc/arm-none-eabi/4.6.3/../../../../arm-none-eabi/include/c++/4.6.3/bits\stl_algo.h **** 	  if (__i == __last)
 435:c:\program files\codesourcery\sourcery_codebench_lite_for_arm_eabi\bin\../lib/gcc/arm-none-eabi/4.6.3/../../../../arm-none-eabi/include/c++/4.6.3/bits\stl_algo.h **** 	    return __last;
 436:c:\program files\codesourcery\sourcery_codebench_lite_for_arm_eabi\bin\../lib/gcc/arm-none-eabi/4.6.3/../../../../arm-none-eabi/include/c++/4.6.3/bits\stl_algo.h **** 	  __first = ++__i;
 437:c:\program files\codesourcery\sourcery_codebench_lite_for_arm_eabi\bin\../lib/gcc/arm-none-eabi/4.6.3/../../../../arm-none-eabi/include/c++/4.6.3/bits\stl_algo.h **** 	  while (__first != __last
 438:c:\program files\codesourcery\sourcery_codebench_lite_for_arm_eabi\bin\../lib/gcc/arm-none-eabi/4.6.3/../../../../arm-none-eabi/include/c++/4.6.3/bits\stl_algo.h **** 		 && !bool(__binary_pred(*__first, __val)))
 439:c:\program files\codesourcery\sourcery_codebench_lite_for_arm_eabi\bin\../lib/gcc/arm-none-eabi/4.6.3/../../../../arm-none-eabi/include/c++/4.6.3/bits\stl_algo.h **** 	    ++__first;
 440:c:\program files\codesourcery\sourcery_codebench_lite_for_arm_eabi\bin\../lib/gcc/arm-none-eabi/4.6.3/../../../../arm-none-eabi/include/c++/4.6.3/bits\stl_algo.h **** 	}
 441:c:\program files\codesourcery\sourcery_codebench_lite_for_arm_eabi\bin\../lib/gcc/arm-none-eabi/4.6.3/../../../../arm-none-eabi/include/c++/4.6.3/bits\stl_algo.h ****       return __last;
 442:c:\program files\codesourcery\sourcery_codebench_lite_for_arm_eabi\bin\../lib/gcc/arm-none-eabi/4.6.3/../../../../arm-none-eabi/include/c++/4.6.3/bits\stl_algo.h ****     }
 443:c:\program files\codesourcery\sourcery_codebench_lite_for_arm_eabi\bin\../lib/gcc/arm-none-eabi/4.6.3/../../../../arm-none-eabi/include/c++/4.6.3/bits\stl_algo.h **** 
 444:c:\program files\codesourcery\sourcery_codebench_lite_for_arm_eabi\bin\../lib/gcc/arm-none-eabi/4.6.3/../../../../arm-none-eabi/include/c++/4.6.3/bits\stl_algo.h ****   /**
 445:c:\program files\codesourcery\sourcery_codebench_lite_for_arm_eabi\bin\../lib/gcc/arm-none-eabi/4.6.3/../../../../arm-none-eabi/include/c++/4.6.3/bits\stl_algo.h ****    *  This is an uglified
 446:c:\program files\codesourcery\sourcery_codebench_lite_for_arm_eabi\bin\../lib/gcc/arm-none-eabi/4.6.3/../../../../arm-none-eabi/include/c++/4.6.3/bits\stl_algo.h ****    *  search_n(_ForwardIterator, _ForwardIterator, _Integer, const _Tp&,
 447:c:\program files\codesourcery\sourcery_codebench_lite_for_arm_eabi\bin\../lib/gcc/arm-none-eabi/4.6.3/../../../../arm-none-eabi/include/c++/4.6.3/bits\stl_algo.h ****    *	       _BinaryPredicate)
 448:c:\program files\codesourcery\sourcery_codebench_lite_for_arm_eabi\bin\../lib/gcc/arm-none-eabi/4.6.3/../../../../arm-none-eabi/include/c++/4.6.3/bits\stl_algo.h ****    *  overloaded for random access iterators.
 449:c:\program files\codesourcery\sourcery_codebench_lite_for_arm_eabi\bin\../lib/gcc/arm-none-eabi/4.6.3/../../../../arm-none-eabi/include/c++/4.6.3/bits\stl_algo.h ****   */
 450:c:\program files\codesourcery\sourcery_codebench_lite_for_arm_eabi\bin\../lib/gcc/arm-none-eabi/4.6.3/../../../../arm-none-eabi/include/c++/4.6.3/bits\stl_algo.h ****   template<typename _RandomAccessIter, typename _Integer, typename _Tp,
 451:c:\program files\codesourcery\sourcery_codebench_lite_for_arm_eabi\bin\../lib/gcc/arm-none-eabi/4.6.3/../../../../arm-none-eabi/include/c++/4.6.3/bits\stl_algo.h **** 	   typename _BinaryPredicate>
 452:c:\program files\codesourcery\sourcery_codebench_lite_for_arm_eabi\bin\../lib/gcc/arm-none-eabi/4.6.3/../../../../arm-none-eabi/include/c++/4.6.3/bits\stl_algo.h ****     _RandomAccessIter
 453:c:\program files\codesourcery\sourcery_codebench_lite_for_arm_eabi\bin\../lib/gcc/arm-none-eabi/4.6.3/../../../../arm-none-eabi/include/c++/4.6.3/bits\stl_algo.h ****     __search_n(_RandomAccessIter __first, _RandomAccessIter __last,
 454:c:\program files\codesourcery\sourcery_codebench_lite_for_arm_eabi\bin\../lib/gcc/arm-none-eabi/4.6.3/../../../../arm-none-eabi/include/c++/4.6.3/bits\stl_algo.h **** 	       _Integer __count, const _Tp& __val,
 455:c:\program files\codesourcery\sourcery_codebench_lite_for_arm_eabi\bin\../lib/gcc/arm-none-eabi/4.6.3/../../../../arm-none-eabi/include/c++/4.6.3/bits\stl_algo.h **** 	       _BinaryPredicate __binary_pred, std::random_access_iterator_tag)
 456:c:\program files\codesourcery\sourcery_codebench_lite_for_arm_eabi\bin\../lib/gcc/arm-none-eabi/4.6.3/../../../../arm-none-eabi/include/c++/4.6.3/bits\stl_algo.h ****     {
 457:c:\program files\codesourcery\sourcery_codebench_lite_for_arm_eabi\bin\../lib/gcc/arm-none-eabi/4.6.3/../../../../arm-none-eabi/include/c++/4.6.3/bits\stl_algo.h ****       
 458:c:\program files\codesourcery\sourcery_codebench_lite_for_arm_eabi\bin\../lib/gcc/arm-none-eabi/4.6.3/../../../../arm-none-eabi/include/c++/4.6.3/bits\stl_algo.h ****       typedef typename std::iterator_traits<_RandomAccessIter>::difference_type
 459:c:\program files\codesourcery\sourcery_codebench_lite_for_arm_eabi\bin\../lib/gcc/arm-none-eabi/4.6.3/../../../../arm-none-eabi/include/c++/4.6.3/bits\stl_algo.h **** 	_DistanceType;
 460:c:\program files\codesourcery\sourcery_codebench_lite_for_arm_eabi\bin\../lib/gcc/arm-none-eabi/4.6.3/../../../../arm-none-eabi/include/c++/4.6.3/bits\stl_algo.h **** 
 461:c:\program files\codesourcery\sourcery_codebench_lite_for_arm_eabi\bin\../lib/gcc/arm-none-eabi/4.6.3/../../../../arm-none-eabi/include/c++/4.6.3/bits\stl_algo.h ****       _DistanceType __tailSize = __last - __first;
 462:c:\program files\codesourcery\sourcery_codebench_lite_for_arm_eabi\bin\../lib/gcc/arm-none-eabi/4.6.3/../../../../arm-none-eabi/include/c++/4.6.3/bits\stl_algo.h ****       const _DistanceType __pattSize = __count;
 463:c:\program files\codesourcery\sourcery_codebench_lite_for_arm_eabi\bin\../lib/gcc/arm-none-eabi/4.6.3/../../../../arm-none-eabi/include/c++/4.6.3/bits\stl_algo.h **** 
 464:c:\program files\codesourcery\sourcery_codebench_lite_for_arm_eabi\bin\../lib/gcc/arm-none-eabi/4.6.3/../../../../arm-none-eabi/include/c++/4.6.3/bits\stl_algo.h ****       if (__tailSize < __pattSize)
 465:c:\program files\codesourcery\sourcery_codebench_lite_for_arm_eabi\bin\../lib/gcc/arm-none-eabi/4.6.3/../../../../arm-none-eabi/include/c++/4.6.3/bits\stl_algo.h ****         return __last;
 466:c:\program files\codesourcery\sourcery_codebench_lite_for_arm_eabi\bin\../lib/gcc/arm-none-eabi/4.6.3/../../../../arm-none-eabi/include/c++/4.6.3/bits\stl_algo.h **** 
 467:c:\program files\codesourcery\sourcery_codebench_lite_for_arm_eabi\bin\../lib/gcc/arm-none-eabi/4.6.3/../../../../arm-none-eabi/include/c++/4.6.3/bits\stl_algo.h ****       const _DistanceType __skipOffset = __pattSize - 1;
 468:c:\program files\codesourcery\sourcery_codebench_lite_for_arm_eabi\bin\../lib/gcc/arm-none-eabi/4.6.3/../../../../arm-none-eabi/include/c++/4.6.3/bits\stl_algo.h ****       _RandomAccessIter __lookAhead = __first + __skipOffset;
 469:c:\program files\codesourcery\sourcery_codebench_lite_for_arm_eabi\bin\../lib/gcc/arm-none-eabi/4.6.3/../../../../arm-none-eabi/include/c++/4.6.3/bits\stl_algo.h ****       __tailSize -= __pattSize;
 470:c:\program files\codesourcery\sourcery_codebench_lite_for_arm_eabi\bin\../lib/gcc/arm-none-eabi/4.6.3/../../../../arm-none-eabi/include/c++/4.6.3/bits\stl_algo.h **** 
 471:c:\program files\codesourcery\sourcery_codebench_lite_for_arm_eabi\bin\../lib/gcc/arm-none-eabi/4.6.3/../../../../arm-none-eabi/include/c++/4.6.3/bits\stl_algo.h ****       while (1) // the main loop...
 472:c:\program files\codesourcery\sourcery_codebench_lite_for_arm_eabi\bin\../lib/gcc/arm-none-eabi/4.6.3/../../../../arm-none-eabi/include/c++/4.6.3/bits\stl_algo.h **** 	{
 473:c:\program files\codesourcery\sourcery_codebench_lite_for_arm_eabi\bin\../lib/gcc/arm-none-eabi/4.6.3/../../../../arm-none-eabi/include/c++/4.6.3/bits\stl_algo.h **** 	  // __lookAhead here is always pointing to the last element of next 
 474:c:\program files\codesourcery\sourcery_codebench_lite_for_arm_eabi\bin\../lib/gcc/arm-none-eabi/4.6.3/../../../../arm-none-eabi/include/c++/4.6.3/bits\stl_algo.h **** 	  // possible match.
 475:c:\program files\codesourcery\sourcery_codebench_lite_for_arm_eabi\bin\../lib/gcc/arm-none-eabi/4.6.3/../../../../arm-none-eabi/include/c++/4.6.3/bits\stl_algo.h **** 	  while (!bool(__binary_pred(*__lookAhead, __val))) // the skip loop...
 476:c:\program files\codesourcery\sourcery_codebench_lite_for_arm_eabi\bin\../lib/gcc/arm-none-eabi/4.6.3/../../../../arm-none-eabi/include/c++/4.6.3/bits\stl_algo.h **** 	    {
 477:c:\program files\codesourcery\sourcery_codebench_lite_for_arm_eabi\bin\../lib/gcc/arm-none-eabi/4.6.3/../../../../arm-none-eabi/include/c++/4.6.3/bits\stl_algo.h **** 	      if (__tailSize < __pattSize)
 478:c:\program files\codesourcery\sourcery_codebench_lite_for_arm_eabi\bin\../lib/gcc/arm-none-eabi/4.6.3/../../../../arm-none-eabi/include/c++/4.6.3/bits\stl_algo.h **** 		return __last;  // Failure
 479:c:\program files\codesourcery\sourcery_codebench_lite_for_arm_eabi\bin\../lib/gcc/arm-none-eabi/4.6.3/../../../../arm-none-eabi/include/c++/4.6.3/bits\stl_algo.h **** 	      __lookAhead += __pattSize;
 480:c:\program files\codesourcery\sourcery_codebench_lite_for_arm_eabi\bin\../lib/gcc/arm-none-eabi/4.6.3/../../../../arm-none-eabi/include/c++/4.6.3/bits\stl_algo.h **** 	      __tailSize -= __pattSize;
 481:c:\program files\codesourcery\sourcery_codebench_lite_for_arm_eabi\bin\../lib/gcc/arm-none-eabi/4.6.3/../../../../arm-none-eabi/include/c++/4.6.3/bits\stl_algo.h **** 	    }
 482:c:\program files\codesourcery\sourcery_codebench_lite_for_arm_eabi\bin\../lib/gcc/arm-none-eabi/4.6.3/../../../../arm-none-eabi/include/c++/4.6.3/bits\stl_algo.h **** 	  _DistanceType __remainder = __skipOffset;
 483:c:\program files\codesourcery\sourcery_codebench_lite_for_arm_eabi\bin\../lib/gcc/arm-none-eabi/4.6.3/../../../../arm-none-eabi/include/c++/4.6.3/bits\stl_algo.h **** 	  for (_RandomAccessIter __backTrack = __lookAhead - 1; 
 484:c:\program files\codesourcery\sourcery_codebench_lite_for_arm_eabi\bin\../lib/gcc/arm-none-eabi/4.6.3/../../../../arm-none-eabi/include/c++/4.6.3/bits\stl_algo.h **** 	       __binary_pred(*__backTrack, __val); --__backTrack)
 485:c:\program files\codesourcery\sourcery_codebench_lite_for_arm_eabi\bin\../lib/gcc/arm-none-eabi/4.6.3/../../../../arm-none-eabi/include/c++/4.6.3/bits\stl_algo.h **** 	    {
 486:c:\program files\codesourcery\sourcery_codebench_lite_for_arm_eabi\bin\../lib/gcc/arm-none-eabi/4.6.3/../../../../arm-none-eabi/include/c++/4.6.3/bits\stl_algo.h **** 	      if (--__remainder == 0)
 487:c:\program files\codesourcery\sourcery_codebench_lite_for_arm_eabi\bin\../lib/gcc/arm-none-eabi/4.6.3/../../../../arm-none-eabi/include/c++/4.6.3/bits\stl_algo.h **** 		return (__lookAhead - __skipOffset); // Success
 488:c:\program files\codesourcery\sourcery_codebench_lite_for_arm_eabi\bin\../lib/gcc/arm-none-eabi/4.6.3/../../../../arm-none-eabi/include/c++/4.6.3/bits\stl_algo.h **** 	    }
 489:c:\program files\codesourcery\sourcery_codebench_lite_for_arm_eabi\bin\../lib/gcc/arm-none-eabi/4.6.3/../../../../arm-none-eabi/include/c++/4.6.3/bits\stl_algo.h **** 	  if (__remainder > __tailSize)
 490:c:\program files\codesourcery\sourcery_codebench_lite_for_arm_eabi\bin\../lib/gcc/arm-none-eabi/4.6.3/../../../../arm-none-eabi/include/c++/4.6.3/bits\stl_algo.h **** 	    return __last; // Failure
 491:c:\program files\codesourcery\sourcery_codebench_lite_for_arm_eabi\bin\../lib/gcc/arm-none-eabi/4.6.3/../../../../arm-none-eabi/include/c++/4.6.3/bits\stl_algo.h **** 	  __lookAhead += __remainder;
 492:c:\program files\codesourcery\sourcery_codebench_lite_for_arm_eabi\bin\../lib/gcc/arm-none-eabi/4.6.3/../../../../arm-none-eabi/include/c++/4.6.3/bits\stl_algo.h **** 	  __tailSize -= __remainder;
 493:c:\program files\codesourcery\sourcery_codebench_lite_for_arm_eabi\bin\../lib/gcc/arm-none-eabi/4.6.3/../../../../arm-none-eabi/include/c++/4.6.3/bits\stl_algo.h **** 	}
 494:c:\program files\codesourcery\sourcery_codebench_lite_for_arm_eabi\bin\../lib/gcc/arm-none-eabi/4.6.3/../../../../arm-none-eabi/include/c++/4.6.3/bits\stl_algo.h ****     }
 495:c:\program files\codesourcery\sourcery_codebench_lite_for_arm_eabi\bin\../lib/gcc/arm-none-eabi/4.6.3/../../../../arm-none-eabi/include/c++/4.6.3/bits\stl_algo.h **** 
 496:c:\program files\codesourcery\sourcery_codebench_lite_for_arm_eabi\bin\../lib/gcc/arm-none-eabi/4.6.3/../../../../arm-none-eabi/include/c++/4.6.3/bits\stl_algo.h ****   // find_end for forward iterators.
 497:c:\program files\codesourcery\sourcery_codebench_lite_for_arm_eabi\bin\../lib/gcc/arm-none-eabi/4.6.3/../../../../arm-none-eabi/include/c++/4.6.3/bits\stl_algo.h ****   template<typename _ForwardIterator1, typename _ForwardIterator2>
 498:c:\program files\codesourcery\sourcery_codebench_lite_for_arm_eabi\bin\../lib/gcc/arm-none-eabi/4.6.3/../../../../arm-none-eabi/include/c++/4.6.3/bits\stl_algo.h ****     _ForwardIterator1
 499:c:\program files\codesourcery\sourcery_codebench_lite_for_arm_eabi\bin\../lib/gcc/arm-none-eabi/4.6.3/../../../../arm-none-eabi/include/c++/4.6.3/bits\stl_algo.h ****     __find_end(_ForwardIterator1 __first1, _ForwardIterator1 __last1,
 500:c:\program files\codesourcery\sourcery_codebench_lite_for_arm_eabi\bin\../lib/gcc/arm-none-eabi/4.6.3/../../../../arm-none-eabi/include/c++/4.6.3/bits\stl_algo.h **** 	       _ForwardIterator2 __first2, _ForwardIterator2 __last2,
 501:c:\program files\codesourcery\sourcery_codebench_lite_for_arm_eabi\bin\../lib/gcc/arm-none-eabi/4.6.3/../../../../arm-none-eabi/include/c++/4.6.3/bits\stl_algo.h **** 	       forward_iterator_tag, forward_iterator_tag)
 502:c:\program files\codesourcery\sourcery_codebench_lite_for_arm_eabi\bin\../lib/gcc/arm-none-eabi/4.6.3/../../../../arm-none-eabi/include/c++/4.6.3/bits\stl_algo.h ****     {
 503:c:\program files\codesourcery\sourcery_codebench_lite_for_arm_eabi\bin\../lib/gcc/arm-none-eabi/4.6.3/../../../../arm-none-eabi/include/c++/4.6.3/bits\stl_algo.h ****       if (__first2 == __last2)
 504:c:\program files\codesourcery\sourcery_codebench_lite_for_arm_eabi\bin\../lib/gcc/arm-none-eabi/4.6.3/../../../../arm-none-eabi/include/c++/4.6.3/bits\stl_algo.h **** 	return __last1;
 505:c:\program files\codesourcery\sourcery_codebench_lite_for_arm_eabi\bin\../lib/gcc/arm-none-eabi/4.6.3/../../../../arm-none-eabi/include/c++/4.6.3/bits\stl_algo.h ****       else
 506:c:\program files\codesourcery\sourcery_codebench_lite_for_arm_eabi\bin\../lib/gcc/arm-none-eabi/4.6.3/../../../../arm-none-eabi/include/c++/4.6.3/bits\stl_algo.h **** 	{
 507:c:\program files\codesourcery\sourcery_codebench_lite_for_arm_eabi\bin\../lib/gcc/arm-none-eabi/4.6.3/../../../../arm-none-eabi/include/c++/4.6.3/bits\stl_algo.h **** 	  _ForwardIterator1 __result = __last1;
 508:c:\program files\codesourcery\sourcery_codebench_lite_for_arm_eabi\bin\../lib/gcc/arm-none-eabi/4.6.3/../../../../arm-none-eabi/include/c++/4.6.3/bits\stl_algo.h **** 	  while (1)
 509:c:\program files\codesourcery\sourcery_codebench_lite_for_arm_eabi\bin\../lib/gcc/arm-none-eabi/4.6.3/../../../../arm-none-eabi/include/c++/4.6.3/bits\stl_algo.h **** 	    {
 510:c:\program files\codesourcery\sourcery_codebench_lite_for_arm_eabi\bin\../lib/gcc/arm-none-eabi/4.6.3/../../../../arm-none-eabi/include/c++/4.6.3/bits\stl_algo.h **** 	      _ForwardIterator1 __new_result
 511:c:\program files\codesourcery\sourcery_codebench_lite_for_arm_eabi\bin\../lib/gcc/arm-none-eabi/4.6.3/../../../../arm-none-eabi/include/c++/4.6.3/bits\stl_algo.h **** 		= _GLIBCXX_STD_A::search(__first1, __last1, __first2, __last2);
 512:c:\program files\codesourcery\sourcery_codebench_lite_for_arm_eabi\bin\../lib/gcc/arm-none-eabi/4.6.3/../../../../arm-none-eabi/include/c++/4.6.3/bits\stl_algo.h **** 	      if (__new_result == __last1)
 513:c:\program files\codesourcery\sourcery_codebench_lite_for_arm_eabi\bin\../lib/gcc/arm-none-eabi/4.6.3/../../../../arm-none-eabi/include/c++/4.6.3/bits\stl_algo.h **** 		return __result;
 514:c:\program files\codesourcery\sourcery_codebench_lite_for_arm_eabi\bin\../lib/gcc/arm-none-eabi/4.6.3/../../../../arm-none-eabi/include/c++/4.6.3/bits\stl_algo.h **** 	      else
 515:c:\program files\codesourcery\sourcery_codebench_lite_for_arm_eabi\bin\../lib/gcc/arm-none-eabi/4.6.3/../../../../arm-none-eabi/include/c++/4.6.3/bits\stl_algo.h **** 		{
 516:c:\program files\codesourcery\sourcery_codebench_lite_for_arm_eabi\bin\../lib/gcc/arm-none-eabi/4.6.3/../../../../arm-none-eabi/include/c++/4.6.3/bits\stl_algo.h **** 		  __result = __new_result;
 517:c:\program files\codesourcery\sourcery_codebench_lite_for_arm_eabi\bin\../lib/gcc/arm-none-eabi/4.6.3/../../../../arm-none-eabi/include/c++/4.6.3/bits\stl_algo.h **** 		  __first1 = __new_result;
 518:c:\program files\codesourcery\sourcery_codebench_lite_for_arm_eabi\bin\../lib/gcc/arm-none-eabi/4.6.3/../../../../arm-none-eabi/include/c++/4.6.3/bits\stl_algo.h **** 		  ++__first1;
 519:c:\program files\codesourcery\sourcery_codebench_lite_for_arm_eabi\bin\../lib/gcc/arm-none-eabi/4.6.3/../../../../arm-none-eabi/include/c++/4.6.3/bits\stl_algo.h **** 		}
 520:c:\program files\codesourcery\sourcery_codebench_lite_for_arm_eabi\bin\../lib/gcc/arm-none-eabi/4.6.3/../../../../arm-none-eabi/include/c++/4.6.3/bits\stl_algo.h **** 	    }
 521:c:\program files\codesourcery\sourcery_codebench_lite_for_arm_eabi\bin\../lib/gcc/arm-none-eabi/4.6.3/../../../../arm-none-eabi/include/c++/4.6.3/bits\stl_algo.h **** 	}
 522:c:\program files\codesourcery\sourcery_codebench_lite_for_arm_eabi\bin\../lib/gcc/arm-none-eabi/4.6.3/../../../../arm-none-eabi/include/c++/4.6.3/bits\stl_algo.h ****     }
 523:c:\program files\codesourcery\sourcery_codebench_lite_for_arm_eabi\bin\../lib/gcc/arm-none-eabi/4.6.3/../../../../arm-none-eabi/include/c++/4.6.3/bits\stl_algo.h **** 
 524:c:\program files\codesourcery\sourcery_codebench_lite_for_arm_eabi\bin\../lib/gcc/arm-none-eabi/4.6.3/../../../../arm-none-eabi/include/c++/4.6.3/bits\stl_algo.h ****   template<typename _ForwardIterator1, typename _ForwardIterator2,
 525:c:\program files\codesourcery\sourcery_codebench_lite_for_arm_eabi\bin\../lib/gcc/arm-none-eabi/4.6.3/../../../../arm-none-eabi/include/c++/4.6.3/bits\stl_algo.h **** 	   typename _BinaryPredicate>
 526:c:\program files\codesourcery\sourcery_codebench_lite_for_arm_eabi\bin\../lib/gcc/arm-none-eabi/4.6.3/../../../../arm-none-eabi/include/c++/4.6.3/bits\stl_algo.h ****     _ForwardIterator1
 527:c:\program files\codesourcery\sourcery_codebench_lite_for_arm_eabi\bin\../lib/gcc/arm-none-eabi/4.6.3/../../../../arm-none-eabi/include/c++/4.6.3/bits\stl_algo.h ****     __find_end(_ForwardIterator1 __first1, _ForwardIterator1 __last1,
 528:c:\program files\codesourcery\sourcery_codebench_lite_for_arm_eabi\bin\../lib/gcc/arm-none-eabi/4.6.3/../../../../arm-none-eabi/include/c++/4.6.3/bits\stl_algo.h **** 	       _ForwardIterator2 __first2, _ForwardIterator2 __last2,
 529:c:\program files\codesourcery\sourcery_codebench_lite_for_arm_eabi\bin\../lib/gcc/arm-none-eabi/4.6.3/../../../../arm-none-eabi/include/c++/4.6.3/bits\stl_algo.h **** 	       forward_iterator_tag, forward_iterator_tag,
 530:c:\program files\codesourcery\sourcery_codebench_lite_for_arm_eabi\bin\../lib/gcc/arm-none-eabi/4.6.3/../../../../arm-none-eabi/include/c++/4.6.3/bits\stl_algo.h **** 	       _BinaryPredicate __comp)
 531:c:\program files\codesourcery\sourcery_codebench_lite_for_arm_eabi\bin\../lib/gcc/arm-none-eabi/4.6.3/../../../../arm-none-eabi/include/c++/4.6.3/bits\stl_algo.h ****     {
 532:c:\program files\codesourcery\sourcery_codebench_lite_for_arm_eabi\bin\../lib/gcc/arm-none-eabi/4.6.3/../../../../arm-none-eabi/include/c++/4.6.3/bits\stl_algo.h ****       if (__first2 == __last2)
 533:c:\program files\codesourcery\sourcery_codebench_lite_for_arm_eabi\bin\../lib/gcc/arm-none-eabi/4.6.3/../../../../arm-none-eabi/include/c++/4.6.3/bits\stl_algo.h **** 	return __last1;
 534:c:\program files\codesourcery\sourcery_codebench_lite_for_arm_eabi\bin\../lib/gcc/arm-none-eabi/4.6.3/../../../../arm-none-eabi/include/c++/4.6.3/bits\stl_algo.h ****       else
 535:c:\program files\codesourcery\sourcery_codebench_lite_for_arm_eabi\bin\../lib/gcc/arm-none-eabi/4.6.3/../../../../arm-none-eabi/include/c++/4.6.3/bits\stl_algo.h **** 	{
 536:c:\program files\codesourcery\sourcery_codebench_lite_for_arm_eabi\bin\../lib/gcc/arm-none-eabi/4.6.3/../../../../arm-none-eabi/include/c++/4.6.3/bits\stl_algo.h **** 	  _ForwardIterator1 __result = __last1;
 537:c:\program files\codesourcery\sourcery_codebench_lite_for_arm_eabi\bin\../lib/gcc/arm-none-eabi/4.6.3/../../../../arm-none-eabi/include/c++/4.6.3/bits\stl_algo.h **** 	  while (1)
 538:c:\program files\codesourcery\sourcery_codebench_lite_for_arm_eabi\bin\../lib/gcc/arm-none-eabi/4.6.3/../../../../arm-none-eabi/include/c++/4.6.3/bits\stl_algo.h **** 	    {
 539:c:\program files\codesourcery\sourcery_codebench_lite_for_arm_eabi\bin\../lib/gcc/arm-none-eabi/4.6.3/../../../../arm-none-eabi/include/c++/4.6.3/bits\stl_algo.h **** 	      _ForwardIterator1 __new_result
 540:c:\program files\codesourcery\sourcery_codebench_lite_for_arm_eabi\bin\../lib/gcc/arm-none-eabi/4.6.3/../../../../arm-none-eabi/include/c++/4.6.3/bits\stl_algo.h **** 		= _GLIBCXX_STD_A::search(__first1, __last1, __first2,
 541:c:\program files\codesourcery\sourcery_codebench_lite_for_arm_eabi\bin\../lib/gcc/arm-none-eabi/4.6.3/../../../../arm-none-eabi/include/c++/4.6.3/bits\stl_algo.h **** 					 __last2, __comp);
 542:c:\program files\codesourcery\sourcery_codebench_lite_for_arm_eabi\bin\../lib/gcc/arm-none-eabi/4.6.3/../../../../arm-none-eabi/include/c++/4.6.3/bits\stl_algo.h **** 	      if (__new_result == __last1)
 543:c:\program files\codesourcery\sourcery_codebench_lite_for_arm_eabi\bin\../lib/gcc/arm-none-eabi/4.6.3/../../../../arm-none-eabi/include/c++/4.6.3/bits\stl_algo.h **** 		return __result;
 544:c:\program files\codesourcery\sourcery_codebench_lite_for_arm_eabi\bin\../lib/gcc/arm-none-eabi/4.6.3/../../../../arm-none-eabi/include/c++/4.6.3/bits\stl_algo.h **** 	      else
 545:c:\program files\codesourcery\sourcery_codebench_lite_for_arm_eabi\bin\../lib/gcc/arm-none-eabi/4.6.3/../../../../arm-none-eabi/include/c++/4.6.3/bits\stl_algo.h **** 		{
 546:c:\program files\codesourcery\sourcery_codebench_lite_for_arm_eabi\bin\../lib/gcc/arm-none-eabi/4.6.3/../../../../arm-none-eabi/include/c++/4.6.3/bits\stl_algo.h **** 		  __result = __new_result;
 547:c:\program files\codesourcery\sourcery_codebench_lite_for_arm_eabi\bin\../lib/gcc/arm-none-eabi/4.6.3/../../../../arm-none-eabi/include/c++/4.6.3/bits\stl_algo.h **** 		  __first1 = __new_result;
 548:c:\program files\codesourcery\sourcery_codebench_lite_for_arm_eabi\bin\../lib/gcc/arm-none-eabi/4.6.3/../../../../arm-none-eabi/include/c++/4.6.3/bits\stl_algo.h **** 		  ++__first1;
 549:c:\program files\codesourcery\sourcery_codebench_lite_for_arm_eabi\bin\../lib/gcc/arm-none-eabi/4.6.3/../../../../arm-none-eabi/include/c++/4.6.3/bits\stl_algo.h **** 		}
 550:c:\program files\codesourcery\sourcery_codebench_lite_for_arm_eabi\bin\../lib/gcc/arm-none-eabi/4.6.3/../../../../arm-none-eabi/include/c++/4.6.3/bits\stl_algo.h **** 	    }
 551:c:\program files\codesourcery\sourcery_codebench_lite_for_arm_eabi\bin\../lib/gcc/arm-none-eabi/4.6.3/../../../../arm-none-eabi/include/c++/4.6.3/bits\stl_algo.h **** 	}
 552:c:\program files\codesourcery\sourcery_codebench_lite_for_arm_eabi\bin\../lib/gcc/arm-none-eabi/4.6.3/../../../../arm-none-eabi/include/c++/4.6.3/bits\stl_algo.h ****     }
 553:c:\program files\codesourcery\sourcery_codebench_lite_for_arm_eabi\bin\../lib/gcc/arm-none-eabi/4.6.3/../../../../arm-none-eabi/include/c++/4.6.3/bits\stl_algo.h **** 
 554:c:\program files\codesourcery\sourcery_codebench_lite_for_arm_eabi\bin\../lib/gcc/arm-none-eabi/4.6.3/../../../../arm-none-eabi/include/c++/4.6.3/bits\stl_algo.h ****   // find_end for bidirectional iterators (much faster).
 555:c:\program files\codesourcery\sourcery_codebench_lite_for_arm_eabi\bin\../lib/gcc/arm-none-eabi/4.6.3/../../../../arm-none-eabi/include/c++/4.6.3/bits\stl_algo.h ****   template<typename _BidirectionalIterator1, typename _BidirectionalIterator2>
 556:c:\program files\codesourcery\sourcery_codebench_lite_for_arm_eabi\bin\../lib/gcc/arm-none-eabi/4.6.3/../../../../arm-none-eabi/include/c++/4.6.3/bits\stl_algo.h ****     _BidirectionalIterator1
 557:c:\program files\codesourcery\sourcery_codebench_lite_for_arm_eabi\bin\../lib/gcc/arm-none-eabi/4.6.3/../../../../arm-none-eabi/include/c++/4.6.3/bits\stl_algo.h ****     __find_end(_BidirectionalIterator1 __first1,
 558:c:\program files\codesourcery\sourcery_codebench_lite_for_arm_eabi\bin\../lib/gcc/arm-none-eabi/4.6.3/../../../../arm-none-eabi/include/c++/4.6.3/bits\stl_algo.h **** 	       _BidirectionalIterator1 __last1,
 559:c:\program files\codesourcery\sourcery_codebench_lite_for_arm_eabi\bin\../lib/gcc/arm-none-eabi/4.6.3/../../../../arm-none-eabi/include/c++/4.6.3/bits\stl_algo.h **** 	       _BidirectionalIterator2 __first2,
 560:c:\program files\codesourcery\sourcery_codebench_lite_for_arm_eabi\bin\../lib/gcc/arm-none-eabi/4.6.3/../../../../arm-none-eabi/include/c++/4.6.3/bits\stl_algo.h **** 	       _BidirectionalIterator2 __last2,
 561:c:\program files\codesourcery\sourcery_codebench_lite_for_arm_eabi\bin\../lib/gcc/arm-none-eabi/4.6.3/../../../../arm-none-eabi/include/c++/4.6.3/bits\stl_algo.h **** 	       bidirectional_iterator_tag, bidirectional_iterator_tag)
 562:c:\program files\codesourcery\sourcery_codebench_lite_for_arm_eabi\bin\../lib/gcc/arm-none-eabi/4.6.3/../../../../arm-none-eabi/include/c++/4.6.3/bits\stl_algo.h ****     {
 563:c:\program files\codesourcery\sourcery_codebench_lite_for_arm_eabi\bin\../lib/gcc/arm-none-eabi/4.6.3/../../../../arm-none-eabi/include/c++/4.6.3/bits\stl_algo.h ****       // concept requirements
 564:c:\program files\codesourcery\sourcery_codebench_lite_for_arm_eabi\bin\../lib/gcc/arm-none-eabi/4.6.3/../../../../arm-none-eabi/include/c++/4.6.3/bits\stl_algo.h ****       __glibcxx_function_requires(_BidirectionalIteratorConcept<
 565:c:\program files\codesourcery\sourcery_codebench_lite_for_arm_eabi\bin\../lib/gcc/arm-none-eabi/4.6.3/../../../../arm-none-eabi/include/c++/4.6.3/bits\stl_algo.h **** 				  _BidirectionalIterator1>)
 566:c:\program files\codesourcery\sourcery_codebench_lite_for_arm_eabi\bin\../lib/gcc/arm-none-eabi/4.6.3/../../../../arm-none-eabi/include/c++/4.6.3/bits\stl_algo.h ****       __glibcxx_function_requires(_BidirectionalIteratorConcept<
 567:c:\program files\codesourcery\sourcery_codebench_lite_for_arm_eabi\bin\../lib/gcc/arm-none-eabi/4.6.3/../../../../arm-none-eabi/include/c++/4.6.3/bits\stl_algo.h **** 				  _BidirectionalIterator2>)
 568:c:\program files\codesourcery\sourcery_codebench_lite_for_arm_eabi\bin\../lib/gcc/arm-none-eabi/4.6.3/../../../../arm-none-eabi/include/c++/4.6.3/bits\stl_algo.h **** 
 569:c:\program files\codesourcery\sourcery_codebench_lite_for_arm_eabi\bin\../lib/gcc/arm-none-eabi/4.6.3/../../../../arm-none-eabi/include/c++/4.6.3/bits\stl_algo.h ****       typedef reverse_iterator<_BidirectionalIterator1> _RevIterator1;
 570:c:\program files\codesourcery\sourcery_codebench_lite_for_arm_eabi\bin\../lib/gcc/arm-none-eabi/4.6.3/../../../../arm-none-eabi/include/c++/4.6.3/bits\stl_algo.h ****       typedef reverse_iterator<_BidirectionalIterator2> _RevIterator2;
 571:c:\program files\codesourcery\sourcery_codebench_lite_for_arm_eabi\bin\../lib/gcc/arm-none-eabi/4.6.3/../../../../arm-none-eabi/include/c++/4.6.3/bits\stl_algo.h **** 
 572:c:\program files\codesourcery\sourcery_codebench_lite_for_arm_eabi\bin\../lib/gcc/arm-none-eabi/4.6.3/../../../../arm-none-eabi/include/c++/4.6.3/bits\stl_algo.h ****       _RevIterator1 __rlast1(__first1);
 573:c:\program files\codesourcery\sourcery_codebench_lite_for_arm_eabi\bin\../lib/gcc/arm-none-eabi/4.6.3/../../../../arm-none-eabi/include/c++/4.6.3/bits\stl_algo.h ****       _RevIterator2 __rlast2(__first2);
 574:c:\program files\codesourcery\sourcery_codebench_lite_for_arm_eabi\bin\../lib/gcc/arm-none-eabi/4.6.3/../../../../arm-none-eabi/include/c++/4.6.3/bits\stl_algo.h ****       _RevIterator1 __rresult = _GLIBCXX_STD_A::search(_RevIterator1(__last1),
 575:c:\program files\codesourcery\sourcery_codebench_lite_for_arm_eabi\bin\../lib/gcc/arm-none-eabi/4.6.3/../../../../arm-none-eabi/include/c++/4.6.3/bits\stl_algo.h **** 						       __rlast1,
 576:c:\program files\codesourcery\sourcery_codebench_lite_for_arm_eabi\bin\../lib/gcc/arm-none-eabi/4.6.3/../../../../arm-none-eabi/include/c++/4.6.3/bits\stl_algo.h **** 						       _RevIterator2(__last2),
 577:c:\program files\codesourcery\sourcery_codebench_lite_for_arm_eabi\bin\../lib/gcc/arm-none-eabi/4.6.3/../../../../arm-none-eabi/include/c++/4.6.3/bits\stl_algo.h **** 						       __rlast2);
 578:c:\program files\codesourcery\sourcery_codebench_lite_for_arm_eabi\bin\../lib/gcc/arm-none-eabi/4.6.3/../../../../arm-none-eabi/include/c++/4.6.3/bits\stl_algo.h **** 
 579:c:\program files\codesourcery\sourcery_codebench_lite_for_arm_eabi\bin\../lib/gcc/arm-none-eabi/4.6.3/../../../../arm-none-eabi/include/c++/4.6.3/bits\stl_algo.h ****       if (__rresult == __rlast1)
 580:c:\program files\codesourcery\sourcery_codebench_lite_for_arm_eabi\bin\../lib/gcc/arm-none-eabi/4.6.3/../../../../arm-none-eabi/include/c++/4.6.3/bits\stl_algo.h **** 	return __last1;
 581:c:\program files\codesourcery\sourcery_codebench_lite_for_arm_eabi\bin\../lib/gcc/arm-none-eabi/4.6.3/../../../../arm-none-eabi/include/c++/4.6.3/bits\stl_algo.h ****       else
 582:c:\program files\codesourcery\sourcery_codebench_lite_for_arm_eabi\bin\../lib/gcc/arm-none-eabi/4.6.3/../../../../arm-none-eabi/include/c++/4.6.3/bits\stl_algo.h **** 	{
 583:c:\program files\codesourcery\sourcery_codebench_lite_for_arm_eabi\bin\../lib/gcc/arm-none-eabi/4.6.3/../../../../arm-none-eabi/include/c++/4.6.3/bits\stl_algo.h **** 	  _BidirectionalIterator1 __result = __rresult.base();
 584:c:\program files\codesourcery\sourcery_codebench_lite_for_arm_eabi\bin\../lib/gcc/arm-none-eabi/4.6.3/../../../../arm-none-eabi/include/c++/4.6.3/bits\stl_algo.h **** 	  std::advance(__result, -std::distance(__first2, __last2));
 585:c:\program files\codesourcery\sourcery_codebench_lite_for_arm_eabi\bin\../lib/gcc/arm-none-eabi/4.6.3/../../../../arm-none-eabi/include/c++/4.6.3/bits\stl_algo.h **** 	  return __result;
 586:c:\program files\codesourcery\sourcery_codebench_lite_for_arm_eabi\bin\../lib/gcc/arm-none-eabi/4.6.3/../../../../arm-none-eabi/include/c++/4.6.3/bits\stl_algo.h **** 	}
 587:c:\program files\codesourcery\sourcery_codebench_lite_for_arm_eabi\bin\../lib/gcc/arm-none-eabi/4.6.3/../../../../arm-none-eabi/include/c++/4.6.3/bits\stl_algo.h ****     }
 588:c:\program files\codesourcery\sourcery_codebench_lite_for_arm_eabi\bin\../lib/gcc/arm-none-eabi/4.6.3/../../../../arm-none-eabi/include/c++/4.6.3/bits\stl_algo.h **** 
 589:c:\program files\codesourcery\sourcery_codebench_lite_for_arm_eabi\bin\../lib/gcc/arm-none-eabi/4.6.3/../../../../arm-none-eabi/include/c++/4.6.3/bits\stl_algo.h ****   template<typename _BidirectionalIterator1, typename _BidirectionalIterator2,
 590:c:\program files\codesourcery\sourcery_codebench_lite_for_arm_eabi\bin\../lib/gcc/arm-none-eabi/4.6.3/../../../../arm-none-eabi/include/c++/4.6.3/bits\stl_algo.h **** 	   typename _BinaryPredicate>
 591:c:\program files\codesourcery\sourcery_codebench_lite_for_arm_eabi\bin\../lib/gcc/arm-none-eabi/4.6.3/../../../../arm-none-eabi/include/c++/4.6.3/bits\stl_algo.h ****     _BidirectionalIterator1
 592:c:\program files\codesourcery\sourcery_codebench_lite_for_arm_eabi\bin\../lib/gcc/arm-none-eabi/4.6.3/../../../../arm-none-eabi/include/c++/4.6.3/bits\stl_algo.h ****     __find_end(_BidirectionalIterator1 __first1,
 593:c:\program files\codesourcery\sourcery_codebench_lite_for_arm_eabi\bin\../lib/gcc/arm-none-eabi/4.6.3/../../../../arm-none-eabi/include/c++/4.6.3/bits\stl_algo.h **** 	       _BidirectionalIterator1 __last1,
 594:c:\program files\codesourcery\sourcery_codebench_lite_for_arm_eabi\bin\../lib/gcc/arm-none-eabi/4.6.3/../../../../arm-none-eabi/include/c++/4.6.3/bits\stl_algo.h **** 	       _BidirectionalIterator2 __first2,
 595:c:\program files\codesourcery\sourcery_codebench_lite_for_arm_eabi\bin\../lib/gcc/arm-none-eabi/4.6.3/../../../../arm-none-eabi/include/c++/4.6.3/bits\stl_algo.h **** 	       _BidirectionalIterator2 __last2,
 596:c:\program files\codesourcery\sourcery_codebench_lite_for_arm_eabi\bin\../lib/gcc/arm-none-eabi/4.6.3/../../../../arm-none-eabi/include/c++/4.6.3/bits\stl_algo.h **** 	       bidirectional_iterator_tag, bidirectional_iterator_tag,
 597:c:\program files\codesourcery\sourcery_codebench_lite_for_arm_eabi\bin\../lib/gcc/arm-none-eabi/4.6.3/../../../../arm-none-eabi/include/c++/4.6.3/bits\stl_algo.h **** 	       _BinaryPredicate __comp)
 598:c:\program files\codesourcery\sourcery_codebench_lite_for_arm_eabi\bin\../lib/gcc/arm-none-eabi/4.6.3/../../../../arm-none-eabi/include/c++/4.6.3/bits\stl_algo.h ****     {
 599:c:\program files\codesourcery\sourcery_codebench_lite_for_arm_eabi\bin\../lib/gcc/arm-none-eabi/4.6.3/../../../../arm-none-eabi/include/c++/4.6.3/bits\stl_algo.h ****       // concept requirements
 600:c:\program files\codesourcery\sourcery_codebench_lite_for_arm_eabi\bin\../lib/gcc/arm-none-eabi/4.6.3/../../../../arm-none-eabi/include/c++/4.6.3/bits\stl_algo.h ****       __glibcxx_function_requires(_BidirectionalIteratorConcept<
 601:c:\program files\codesourcery\sourcery_codebench_lite_for_arm_eabi\bin\../lib/gcc/arm-none-eabi/4.6.3/../../../../arm-none-eabi/include/c++/4.6.3/bits\stl_algo.h **** 				  _BidirectionalIterator1>)
 602:c:\program files\codesourcery\sourcery_codebench_lite_for_arm_eabi\bin\../lib/gcc/arm-none-eabi/4.6.3/../../../../arm-none-eabi/include/c++/4.6.3/bits\stl_algo.h ****       __glibcxx_function_requires(_BidirectionalIteratorConcept<
 603:c:\program files\codesourcery\sourcery_codebench_lite_for_arm_eabi\bin\../lib/gcc/arm-none-eabi/4.6.3/../../../../arm-none-eabi/include/c++/4.6.3/bits\stl_algo.h **** 				  _BidirectionalIterator2>)
 604:c:\program files\codesourcery\sourcery_codebench_lite_for_arm_eabi\bin\../lib/gcc/arm-none-eabi/4.6.3/../../../../arm-none-eabi/include/c++/4.6.3/bits\stl_algo.h **** 
 605:c:\program files\codesourcery\sourcery_codebench_lite_for_arm_eabi\bin\../lib/gcc/arm-none-eabi/4.6.3/../../../../arm-none-eabi/include/c++/4.6.3/bits\stl_algo.h ****       typedef reverse_iterator<_BidirectionalIterator1> _RevIterator1;
 606:c:\program files\codesourcery\sourcery_codebench_lite_for_arm_eabi\bin\../lib/gcc/arm-none-eabi/4.6.3/../../../../arm-none-eabi/include/c++/4.6.3/bits\stl_algo.h ****       typedef reverse_iterator<_BidirectionalIterator2> _RevIterator2;
 607:c:\program files\codesourcery\sourcery_codebench_lite_for_arm_eabi\bin\../lib/gcc/arm-none-eabi/4.6.3/../../../../arm-none-eabi/include/c++/4.6.3/bits\stl_algo.h **** 
 608:c:\program files\codesourcery\sourcery_codebench_lite_for_arm_eabi\bin\../lib/gcc/arm-none-eabi/4.6.3/../../../../arm-none-eabi/include/c++/4.6.3/bits\stl_algo.h ****       _RevIterator1 __rlast1(__first1);
 609:c:\program files\codesourcery\sourcery_codebench_lite_for_arm_eabi\bin\../lib/gcc/arm-none-eabi/4.6.3/../../../../arm-none-eabi/include/c++/4.6.3/bits\stl_algo.h ****       _RevIterator2 __rlast2(__first2);
 610:c:\program files\codesourcery\sourcery_codebench_lite_for_arm_eabi\bin\../lib/gcc/arm-none-eabi/4.6.3/../../../../arm-none-eabi/include/c++/4.6.3/bits\stl_algo.h ****       _RevIterator1 __rresult = std::search(_RevIterator1(__last1), __rlast1,
 611:c:\program files\codesourcery\sourcery_codebench_lite_for_arm_eabi\bin\../lib/gcc/arm-none-eabi/4.6.3/../../../../arm-none-eabi/include/c++/4.6.3/bits\stl_algo.h **** 					    _RevIterator2(__last2), __rlast2,
 612:c:\program files\codesourcery\sourcery_codebench_lite_for_arm_eabi\bin\../lib/gcc/arm-none-eabi/4.6.3/../../../../arm-none-eabi/include/c++/4.6.3/bits\stl_algo.h **** 					    __comp);
 613:c:\program files\codesourcery\sourcery_codebench_lite_for_arm_eabi\bin\../lib/gcc/arm-none-eabi/4.6.3/../../../../arm-none-eabi/include/c++/4.6.3/bits\stl_algo.h **** 
 614:c:\program files\codesourcery\sourcery_codebench_lite_for_arm_eabi\bin\../lib/gcc/arm-none-eabi/4.6.3/../../../../arm-none-eabi/include/c++/4.6.3/bits\stl_algo.h ****       if (__rresult == __rlast1)
 615:c:\program files\codesourcery\sourcery_codebench_lite_for_arm_eabi\bin\../lib/gcc/arm-none-eabi/4.6.3/../../../../arm-none-eabi/include/c++/4.6.3/bits\stl_algo.h **** 	return __last1;
 616:c:\program files\codesourcery\sourcery_codebench_lite_for_arm_eabi\bin\../lib/gcc/arm-none-eabi/4.6.3/../../../../arm-none-eabi/include/c++/4.6.3/bits\stl_algo.h ****       else
 617:c:\program files\codesourcery\sourcery_codebench_lite_for_arm_eabi\bin\../lib/gcc/arm-none-eabi/4.6.3/../../../../arm-none-eabi/include/c++/4.6.3/bits\stl_algo.h **** 	{
 618:c:\program files\codesourcery\sourcery_codebench_lite_for_arm_eabi\bin\../lib/gcc/arm-none-eabi/4.6.3/../../../../arm-none-eabi/include/c++/4.6.3/bits\stl_algo.h **** 	  _BidirectionalIterator1 __result = __rresult.base();
 619:c:\program files\codesourcery\sourcery_codebench_lite_for_arm_eabi\bin\../lib/gcc/arm-none-eabi/4.6.3/../../../../arm-none-eabi/include/c++/4.6.3/bits\stl_algo.h **** 	  std::advance(__result, -std::distance(__first2, __last2));
 620:c:\program files\codesourcery\sourcery_codebench_lite_for_arm_eabi\bin\../lib/gcc/arm-none-eabi/4.6.3/../../../../arm-none-eabi/include/c++/4.6.3/bits\stl_algo.h **** 	  return __result;
 621:c:\program files\codesourcery\sourcery_codebench_lite_for_arm_eabi\bin\../lib/gcc/arm-none-eabi/4.6.3/../../../../arm-none-eabi/include/c++/4.6.3/bits\stl_algo.h **** 	}
 622:c:\program files\codesourcery\sourcery_codebench_lite_for_arm_eabi\bin\../lib/gcc/arm-none-eabi/4.6.3/../../../../arm-none-eabi/include/c++/4.6.3/bits\stl_algo.h ****     }
 623:c:\program files\codesourcery\sourcery_codebench_lite_for_arm_eabi\bin\../lib/gcc/arm-none-eabi/4.6.3/../../../../arm-none-eabi/include/c++/4.6.3/bits\stl_algo.h **** 
 624:c:\program files\codesourcery\sourcery_codebench_lite_for_arm_eabi\bin\../lib/gcc/arm-none-eabi/4.6.3/../../../../arm-none-eabi/include/c++/4.6.3/bits\stl_algo.h ****   /**
 625:c:\program files\codesourcery\sourcery_codebench_lite_for_arm_eabi\bin\../lib/gcc/arm-none-eabi/4.6.3/../../../../arm-none-eabi/include/c++/4.6.3/bits\stl_algo.h ****    *  @brief  Find last matching subsequence in a sequence.
 626:c:\program files\codesourcery\sourcery_codebench_lite_for_arm_eabi\bin\../lib/gcc/arm-none-eabi/4.6.3/../../../../arm-none-eabi/include/c++/4.6.3/bits\stl_algo.h ****    *  @ingroup non_mutating_algorithms
 627:c:\program files\codesourcery\sourcery_codebench_lite_for_arm_eabi\bin\../lib/gcc/arm-none-eabi/4.6.3/../../../../arm-none-eabi/include/c++/4.6.3/bits\stl_algo.h ****    *  @param  first1  Start of range to search.
 628:c:\program files\codesourcery\sourcery_codebench_lite_for_arm_eabi\bin\../lib/gcc/arm-none-eabi/4.6.3/../../../../arm-none-eabi/include/c++/4.6.3/bits\stl_algo.h ****    *  @param  last1   End of range to search.
 629:c:\program files\codesourcery\sourcery_codebench_lite_for_arm_eabi\bin\../lib/gcc/arm-none-eabi/4.6.3/../../../../arm-none-eabi/include/c++/4.6.3/bits\stl_algo.h ****    *  @param  first2  Start of sequence to match.
 630:c:\program files\codesourcery\sourcery_codebench_lite_for_arm_eabi\bin\../lib/gcc/arm-none-eabi/4.6.3/../../../../arm-none-eabi/include/c++/4.6.3/bits\stl_algo.h ****    *  @param  last2   End of sequence to match.
 631:c:\program files\codesourcery\sourcery_codebench_lite_for_arm_eabi\bin\../lib/gcc/arm-none-eabi/4.6.3/../../../../arm-none-eabi/include/c++/4.6.3/bits\stl_algo.h ****    *  @return   The last iterator @c i in the range
 632:c:\program files\codesourcery\sourcery_codebench_lite_for_arm_eabi\bin\../lib/gcc/arm-none-eabi/4.6.3/../../../../arm-none-eabi/include/c++/4.6.3/bits\stl_algo.h ****    *  @p [first1,last1-(last2-first2)) such that @c *(i+N) == @p *(first2+N)
 633:c:\program files\codesourcery\sourcery_codebench_lite_for_arm_eabi\bin\../lib/gcc/arm-none-eabi/4.6.3/../../../../arm-none-eabi/include/c++/4.6.3/bits\stl_algo.h ****    *  for each @c N in the range @p [0,last2-first2), or @p last1 if no
 634:c:\program files\codesourcery\sourcery_codebench_lite_for_arm_eabi\bin\../lib/gcc/arm-none-eabi/4.6.3/../../../../arm-none-eabi/include/c++/4.6.3/bits\stl_algo.h ****    *  such iterator exists.
 635:c:\program files\codesourcery\sourcery_codebench_lite_for_arm_eabi\bin\../lib/gcc/arm-none-eabi/4.6.3/../../../../arm-none-eabi/include/c++/4.6.3/bits\stl_algo.h ****    *
 636:c:\program files\codesourcery\sourcery_codebench_lite_for_arm_eabi\bin\../lib/gcc/arm-none-eabi/4.6.3/../../../../arm-none-eabi/include/c++/4.6.3/bits\stl_algo.h ****    *  Searches the range @p [first1,last1) for a sub-sequence that compares
 637:c:\program files\codesourcery\sourcery_codebench_lite_for_arm_eabi\bin\../lib/gcc/arm-none-eabi/4.6.3/../../../../arm-none-eabi/include/c++/4.6.3/bits\stl_algo.h ****    *  equal value-by-value with the sequence given by @p [first2,last2) and
 638:c:\program files\codesourcery\sourcery_codebench_lite_for_arm_eabi\bin\../lib/gcc/arm-none-eabi/4.6.3/../../../../arm-none-eabi/include/c++/4.6.3/bits\stl_algo.h ****    *  returns an iterator to the first element of the sub-sequence, or
 639:c:\program files\codesourcery\sourcery_codebench_lite_for_arm_eabi\bin\../lib/gcc/arm-none-eabi/4.6.3/../../../../arm-none-eabi/include/c++/4.6.3/bits\stl_algo.h ****    *  @p last1 if the sub-sequence is not found.  The sub-sequence will be the
 640:c:\program files\codesourcery\sourcery_codebench_lite_for_arm_eabi\bin\../lib/gcc/arm-none-eabi/4.6.3/../../../../arm-none-eabi/include/c++/4.6.3/bits\stl_algo.h ****    *  last such subsequence contained in [first,last1).
 641:c:\program files\codesourcery\sourcery_codebench_lite_for_arm_eabi\bin\../lib/gcc/arm-none-eabi/4.6.3/../../../../arm-none-eabi/include/c++/4.6.3/bits\stl_algo.h ****    *
 642:c:\program files\codesourcery\sourcery_codebench_lite_for_arm_eabi\bin\../lib/gcc/arm-none-eabi/4.6.3/../../../../arm-none-eabi/include/c++/4.6.3/bits\stl_algo.h ****    *  Because the sub-sequence must lie completely within the range
 643:c:\program files\codesourcery\sourcery_codebench_lite_for_arm_eabi\bin\../lib/gcc/arm-none-eabi/4.6.3/../../../../arm-none-eabi/include/c++/4.6.3/bits\stl_algo.h ****    *  @p [first1,last1) it must start at a position less than
 644:c:\program files\codesourcery\sourcery_codebench_lite_for_arm_eabi\bin\../lib/gcc/arm-none-eabi/4.6.3/../../../../arm-none-eabi/include/c++/4.6.3/bits\stl_algo.h ****    *  @p last1-(last2-first2) where @p last2-first2 is the length of the
 645:c:\program files\codesourcery\sourcery_codebench_lite_for_arm_eabi\bin\../lib/gcc/arm-none-eabi/4.6.3/../../../../arm-none-eabi/include/c++/4.6.3/bits\stl_algo.h ****    *  sub-sequence.
 646:c:\program files\codesourcery\sourcery_codebench_lite_for_arm_eabi\bin\../lib/gcc/arm-none-eabi/4.6.3/../../../../arm-none-eabi/include/c++/4.6.3/bits\stl_algo.h ****    *  This means that the returned iterator @c i will be in the range
 647:c:\program files\codesourcery\sourcery_codebench_lite_for_arm_eabi\bin\../lib/gcc/arm-none-eabi/4.6.3/../../../../arm-none-eabi/include/c++/4.6.3/bits\stl_algo.h ****    *  @p [first1,last1-(last2-first2))
 648:c:\program files\codesourcery\sourcery_codebench_lite_for_arm_eabi\bin\../lib/gcc/arm-none-eabi/4.6.3/../../../../arm-none-eabi/include/c++/4.6.3/bits\stl_algo.h ****   */
 649:c:\program files\codesourcery\sourcery_codebench_lite_for_arm_eabi\bin\../lib/gcc/arm-none-eabi/4.6.3/../../../../arm-none-eabi/include/c++/4.6.3/bits\stl_algo.h ****   template<typename _ForwardIterator1, typename _ForwardIterator2>
 650:c:\program files\codesourcery\sourcery_codebench_lite_for_arm_eabi\bin\../lib/gcc/arm-none-eabi/4.6.3/../../../../arm-none-eabi/include/c++/4.6.3/bits\stl_algo.h ****     inline _ForwardIterator1
 651:c:\program files\codesourcery\sourcery_codebench_lite_for_arm_eabi\bin\../lib/gcc/arm-none-eabi/4.6.3/../../../../arm-none-eabi/include/c++/4.6.3/bits\stl_algo.h ****     find_end(_ForwardIterator1 __first1, _ForwardIterator1 __last1,
 652:c:\program files\codesourcery\sourcery_codebench_lite_for_arm_eabi\bin\../lib/gcc/arm-none-eabi/4.6.3/../../../../arm-none-eabi/include/c++/4.6.3/bits\stl_algo.h **** 	     _ForwardIterator2 __first2, _ForwardIterator2 __last2)
 653:c:\program files\codesourcery\sourcery_codebench_lite_for_arm_eabi\bin\../lib/gcc/arm-none-eabi/4.6.3/../../../../arm-none-eabi/include/c++/4.6.3/bits\stl_algo.h ****     {
 654:c:\program files\codesourcery\sourcery_codebench_lite_for_arm_eabi\bin\../lib/gcc/arm-none-eabi/4.6.3/../../../../arm-none-eabi/include/c++/4.6.3/bits\stl_algo.h ****       // concept requirements
 655:c:\program files\codesourcery\sourcery_codebench_lite_for_arm_eabi\bin\../lib/gcc/arm-none-eabi/4.6.3/../../../../arm-none-eabi/include/c++/4.6.3/bits\stl_algo.h ****       __glibcxx_function_requires(_ForwardIteratorConcept<_ForwardIterator1>)
 656:c:\program files\codesourcery\sourcery_codebench_lite_for_arm_eabi\bin\../lib/gcc/arm-none-eabi/4.6.3/../../../../arm-none-eabi/include/c++/4.6.3/bits\stl_algo.h ****       __glibcxx_function_requires(_ForwardIteratorConcept<_ForwardIterator2>)
 657:c:\program files\codesourcery\sourcery_codebench_lite_for_arm_eabi\bin\../lib/gcc/arm-none-eabi/4.6.3/../../../../arm-none-eabi/include/c++/4.6.3/bits\stl_algo.h ****       __glibcxx_function_requires(_EqualOpConcept<
 658:c:\program files\codesourcery\sourcery_codebench_lite_for_arm_eabi\bin\../lib/gcc/arm-none-eabi/4.6.3/../../../../arm-none-eabi/include/c++/4.6.3/bits\stl_algo.h **** 	    typename iterator_traits<_ForwardIterator1>::value_type,
 659:c:\program files\codesourcery\sourcery_codebench_lite_for_arm_eabi\bin\../lib/gcc/arm-none-eabi/4.6.3/../../../../arm-none-eabi/include/c++/4.6.3/bits\stl_algo.h **** 	    typename iterator_traits<_ForwardIterator2>::value_type>)
 660:c:\program files\codesourcery\sourcery_codebench_lite_for_arm_eabi\bin\../lib/gcc/arm-none-eabi/4.6.3/../../../../arm-none-eabi/include/c++/4.6.3/bits\stl_algo.h ****       __glibcxx_requires_valid_range(__first1, __last1);
 661:c:\program files\codesourcery\sourcery_codebench_lite_for_arm_eabi\bin\../lib/gcc/arm-none-eabi/4.6.3/../../../../arm-none-eabi/include/c++/4.6.3/bits\stl_algo.h ****       __glibcxx_requires_valid_range(__first2, __last2);
 662:c:\program files\codesourcery\sourcery_codebench_lite_for_arm_eabi\bin\../lib/gcc/arm-none-eabi/4.6.3/../../../../arm-none-eabi/include/c++/4.6.3/bits\stl_algo.h **** 
 663:c:\program files\codesourcery\sourcery_codebench_lite_for_arm_eabi\bin\../lib/gcc/arm-none-eabi/4.6.3/../../../../arm-none-eabi/include/c++/4.6.3/bits\stl_algo.h ****       return std::__find_end(__first1, __last1, __first2, __last2,
 664:c:\program files\codesourcery\sourcery_codebench_lite_for_arm_eabi\bin\../lib/gcc/arm-none-eabi/4.6.3/../../../../arm-none-eabi/include/c++/4.6.3/bits\stl_algo.h **** 			     std::__iterator_category(__first1),
 665:c:\program files\codesourcery\sourcery_codebench_lite_for_arm_eabi\bin\../lib/gcc/arm-none-eabi/4.6.3/../../../../arm-none-eabi/include/c++/4.6.3/bits\stl_algo.h **** 			     std::__iterator_category(__first2));
 666:c:\program files\codesourcery\sourcery_codebench_lite_for_arm_eabi\bin\../lib/gcc/arm-none-eabi/4.6.3/../../../../arm-none-eabi/include/c++/4.6.3/bits\stl_algo.h ****     }
 667:c:\program files\codesourcery\sourcery_codebench_lite_for_arm_eabi\bin\../lib/gcc/arm-none-eabi/4.6.3/../../../../arm-none-eabi/include/c++/4.6.3/bits\stl_algo.h **** 
 668:c:\program files\codesourcery\sourcery_codebench_lite_for_arm_eabi\bin\../lib/gcc/arm-none-eabi/4.6.3/../../../../arm-none-eabi/include/c++/4.6.3/bits\stl_algo.h ****   /**
 669:c:\program files\codesourcery\sourcery_codebench_lite_for_arm_eabi\bin\../lib/gcc/arm-none-eabi/4.6.3/../../../../arm-none-eabi/include/c++/4.6.3/bits\stl_algo.h ****    *  @brief  Find last matching subsequence in a sequence using a predicate.
 670:c:\program files\codesourcery\sourcery_codebench_lite_for_arm_eabi\bin\../lib/gcc/arm-none-eabi/4.6.3/../../../../arm-none-eabi/include/c++/4.6.3/bits\stl_algo.h ****    *  @ingroup non_mutating_algorithms
 671:c:\program files\codesourcery\sourcery_codebench_lite_for_arm_eabi\bin\../lib/gcc/arm-none-eabi/4.6.3/../../../../arm-none-eabi/include/c++/4.6.3/bits\stl_algo.h ****    *  @param  first1  Start of range to search.
 672:c:\program files\codesourcery\sourcery_codebench_lite_for_arm_eabi\bin\../lib/gcc/arm-none-eabi/4.6.3/../../../../arm-none-eabi/include/c++/4.6.3/bits\stl_algo.h ****    *  @param  last1   End of range to search.
 673:c:\program files\codesourcery\sourcery_codebench_lite_for_arm_eabi\bin\../lib/gcc/arm-none-eabi/4.6.3/../../../../arm-none-eabi/include/c++/4.6.3/bits\stl_algo.h ****    *  @param  first2  Start of sequence to match.
 674:c:\program files\codesourcery\sourcery_codebench_lite_for_arm_eabi\bin\../lib/gcc/arm-none-eabi/4.6.3/../../../../arm-none-eabi/include/c++/4.6.3/bits\stl_algo.h ****    *  @param  last2   End of sequence to match.
 675:c:\program files\codesourcery\sourcery_codebench_lite_for_arm_eabi\bin\../lib/gcc/arm-none-eabi/4.6.3/../../../../arm-none-eabi/include/c++/4.6.3/bits\stl_algo.h ****    *  @param  comp    The predicate to use.
 676:c:\program files\codesourcery\sourcery_codebench_lite_for_arm_eabi\bin\../lib/gcc/arm-none-eabi/4.6.3/../../../../arm-none-eabi/include/c++/4.6.3/bits\stl_algo.h ****    *  @return   The last iterator @c i in the range
 677:c:\program files\codesourcery\sourcery_codebench_lite_for_arm_eabi\bin\../lib/gcc/arm-none-eabi/4.6.3/../../../../arm-none-eabi/include/c++/4.6.3/bits\stl_algo.h ****    *  @p [first1,last1-(last2-first2)) such that @c predicate(*(i+N), @p
 678:c:\program files\codesourcery\sourcery_codebench_lite_for_arm_eabi\bin\../lib/gcc/arm-none-eabi/4.6.3/../../../../arm-none-eabi/include/c++/4.6.3/bits\stl_algo.h ****    *  (first2+N)) is true for each @c N in the range @p [0,last2-first2), or
 679:c:\program files\codesourcery\sourcery_codebench_lite_for_arm_eabi\bin\../lib/gcc/arm-none-eabi/4.6.3/../../../../arm-none-eabi/include/c++/4.6.3/bits\stl_algo.h ****    *  @p last1 if no such iterator exists.
 680:c:\program files\codesourcery\sourcery_codebench_lite_for_arm_eabi\bin\../lib/gcc/arm-none-eabi/4.6.3/../../../../arm-none-eabi/include/c++/4.6.3/bits\stl_algo.h ****    *
 681:c:\program files\codesourcery\sourcery_codebench_lite_for_arm_eabi\bin\../lib/gcc/arm-none-eabi/4.6.3/../../../../arm-none-eabi/include/c++/4.6.3/bits\stl_algo.h ****    *  Searches the range @p [first1,last1) for a sub-sequence that compares
 682:c:\program files\codesourcery\sourcery_codebench_lite_for_arm_eabi\bin\../lib/gcc/arm-none-eabi/4.6.3/../../../../arm-none-eabi/include/c++/4.6.3/bits\stl_algo.h ****    *  equal value-by-value with the sequence given by @p [first2,last2) using
 683:c:\program files\codesourcery\sourcery_codebench_lite_for_arm_eabi\bin\../lib/gcc/arm-none-eabi/4.6.3/../../../../arm-none-eabi/include/c++/4.6.3/bits\stl_algo.h ****    *  comp as a predicate and returns an iterator to the first element of the
 684:c:\program files\codesourcery\sourcery_codebench_lite_for_arm_eabi\bin\../lib/gcc/arm-none-eabi/4.6.3/../../../../arm-none-eabi/include/c++/4.6.3/bits\stl_algo.h ****    *  sub-sequence, or @p last1 if the sub-sequence is not found.  The
 685:c:\program files\codesourcery\sourcery_codebench_lite_for_arm_eabi\bin\../lib/gcc/arm-none-eabi/4.6.3/../../../../arm-none-eabi/include/c++/4.6.3/bits\stl_algo.h ****    *  sub-sequence will be the last such subsequence contained in
 686:c:\program files\codesourcery\sourcery_codebench_lite_for_arm_eabi\bin\../lib/gcc/arm-none-eabi/4.6.3/../../../../arm-none-eabi/include/c++/4.6.3/bits\stl_algo.h ****    *  [first,last1).
 687:c:\program files\codesourcery\sourcery_codebench_lite_for_arm_eabi\bin\../lib/gcc/arm-none-eabi/4.6.3/../../../../arm-none-eabi/include/c++/4.6.3/bits\stl_algo.h ****    *
 688:c:\program files\codesourcery\sourcery_codebench_lite_for_arm_eabi\bin\../lib/gcc/arm-none-eabi/4.6.3/../../../../arm-none-eabi/include/c++/4.6.3/bits\stl_algo.h ****    *  Because the sub-sequence must lie completely within the range
 689:c:\program files\codesourcery\sourcery_codebench_lite_for_arm_eabi\bin\../lib/gcc/arm-none-eabi/4.6.3/../../../../arm-none-eabi/include/c++/4.6.3/bits\stl_algo.h ****    *  @p [first1,last1) it must start at a position less than
 690:c:\program files\codesourcery\sourcery_codebench_lite_for_arm_eabi\bin\../lib/gcc/arm-none-eabi/4.6.3/../../../../arm-none-eabi/include/c++/4.6.3/bits\stl_algo.h ****    *  @p last1-(last2-first2) where @p last2-first2 is the length of the
 691:c:\program files\codesourcery\sourcery_codebench_lite_for_arm_eabi\bin\../lib/gcc/arm-none-eabi/4.6.3/../../../../arm-none-eabi/include/c++/4.6.3/bits\stl_algo.h ****    *  sub-sequence.
 692:c:\program files\codesourcery\sourcery_codebench_lite_for_arm_eabi\bin\../lib/gcc/arm-none-eabi/4.6.3/../../../../arm-none-eabi/include/c++/4.6.3/bits\stl_algo.h ****    *  This means that the returned iterator @c i will be in the range
 693:c:\program files\codesourcery\sourcery_codebench_lite_for_arm_eabi\bin\../lib/gcc/arm-none-eabi/4.6.3/../../../../arm-none-eabi/include/c++/4.6.3/bits\stl_algo.h ****    *  @p [first1,last1-(last2-first2))
 694:c:\program files\codesourcery\sourcery_codebench_lite_for_arm_eabi\bin\../lib/gcc/arm-none-eabi/4.6.3/../../../../arm-none-eabi/include/c++/4.6.3/bits\stl_algo.h ****   */
 695:c:\program files\codesourcery\sourcery_codebench_lite_for_arm_eabi\bin\../lib/gcc/arm-none-eabi/4.6.3/../../../../arm-none-eabi/include/c++/4.6.3/bits\stl_algo.h ****   template<typename _ForwardIterator1, typename _ForwardIterator2,
 696:c:\program files\codesourcery\sourcery_codebench_lite_for_arm_eabi\bin\../lib/gcc/arm-none-eabi/4.6.3/../../../../arm-none-eabi/include/c++/4.6.3/bits\stl_algo.h **** 	   typename _BinaryPredicate>
 697:c:\program files\codesourcery\sourcery_codebench_lite_for_arm_eabi\bin\../lib/gcc/arm-none-eabi/4.6.3/../../../../arm-none-eabi/include/c++/4.6.3/bits\stl_algo.h ****     inline _ForwardIterator1
 698:c:\program files\codesourcery\sourcery_codebench_lite_for_arm_eabi\bin\../lib/gcc/arm-none-eabi/4.6.3/../../../../arm-none-eabi/include/c++/4.6.3/bits\stl_algo.h ****     find_end(_ForwardIterator1 __first1, _ForwardIterator1 __last1,
 699:c:\program files\codesourcery\sourcery_codebench_lite_for_arm_eabi\bin\../lib/gcc/arm-none-eabi/4.6.3/../../../../arm-none-eabi/include/c++/4.6.3/bits\stl_algo.h **** 	     _ForwardIterator2 __first2, _ForwardIterator2 __last2,
 700:c:\program files\codesourcery\sourcery_codebench_lite_for_arm_eabi\bin\../lib/gcc/arm-none-eabi/4.6.3/../../../../arm-none-eabi/include/c++/4.6.3/bits\stl_algo.h **** 	     _BinaryPredicate __comp)
 701:c:\program files\codesourcery\sourcery_codebench_lite_for_arm_eabi\bin\../lib/gcc/arm-none-eabi/4.6.3/../../../../arm-none-eabi/include/c++/4.6.3/bits\stl_algo.h ****     {
 702:c:\program files\codesourcery\sourcery_codebench_lite_for_arm_eabi\bin\../lib/gcc/arm-none-eabi/4.6.3/../../../../arm-none-eabi/include/c++/4.6.3/bits\stl_algo.h ****       // concept requirements
 703:c:\program files\codesourcery\sourcery_codebench_lite_for_arm_eabi\bin\../lib/gcc/arm-none-eabi/4.6.3/../../../../arm-none-eabi/include/c++/4.6.3/bits\stl_algo.h ****       __glibcxx_function_requires(_ForwardIteratorConcept<_ForwardIterator1>)
 704:c:\program files\codesourcery\sourcery_codebench_lite_for_arm_eabi\bin\../lib/gcc/arm-none-eabi/4.6.3/../../../../arm-none-eabi/include/c++/4.6.3/bits\stl_algo.h ****       __glibcxx_function_requires(_ForwardIteratorConcept<_ForwardIterator2>)
 705:c:\program files\codesourcery\sourcery_codebench_lite_for_arm_eabi\bin\../lib/gcc/arm-none-eabi/4.6.3/../../../../arm-none-eabi/include/c++/4.6.3/bits\stl_algo.h ****       __glibcxx_function_requires(_BinaryPredicateConcept<_BinaryPredicate,
 706:c:\program files\codesourcery\sourcery_codebench_lite_for_arm_eabi\bin\../lib/gcc/arm-none-eabi/4.6.3/../../../../arm-none-eabi/include/c++/4.6.3/bits\stl_algo.h **** 	    typename iterator_traits<_ForwardIterator1>::value_type,
 707:c:\program files\codesourcery\sourcery_codebench_lite_for_arm_eabi\bin\../lib/gcc/arm-none-eabi/4.6.3/../../../../arm-none-eabi/include/c++/4.6.3/bits\stl_algo.h **** 	    typename iterator_traits<_ForwardIterator2>::value_type>)
 708:c:\program files\codesourcery\sourcery_codebench_lite_for_arm_eabi\bin\../lib/gcc/arm-none-eabi/4.6.3/../../../../arm-none-eabi/include/c++/4.6.3/bits\stl_algo.h ****       __glibcxx_requires_valid_range(__first1, __last1);
 709:c:\program files\codesourcery\sourcery_codebench_lite_for_arm_eabi\bin\../lib/gcc/arm-none-eabi/4.6.3/../../../../arm-none-eabi/include/c++/4.6.3/bits\stl_algo.h ****       __glibcxx_requires_valid_range(__first2, __last2);
 710:c:\program files\codesourcery\sourcery_codebench_lite_for_arm_eabi\bin\../lib/gcc/arm-none-eabi/4.6.3/../../../../arm-none-eabi/include/c++/4.6.3/bits\stl_algo.h **** 
 711:c:\program files\codesourcery\sourcery_codebench_lite_for_arm_eabi\bin\../lib/gcc/arm-none-eabi/4.6.3/../../../../arm-none-eabi/include/c++/4.6.3/bits\stl_algo.h ****       return std::__find_end(__first1, __last1, __first2, __last2,
 712:c:\program files\codesourcery\sourcery_codebench_lite_for_arm_eabi\bin\../lib/gcc/arm-none-eabi/4.6.3/../../../../arm-none-eabi/include/c++/4.6.3/bits\stl_algo.h **** 			     std::__iterator_category(__first1),
 713:c:\program files\codesourcery\sourcery_codebench_lite_for_arm_eabi\bin\../lib/gcc/arm-none-eabi/4.6.3/../../../../arm-none-eabi/include/c++/4.6.3/bits\stl_algo.h **** 			     std::__iterator_category(__first2),
 714:c:\program files\codesourcery\sourcery_codebench_lite_for_arm_eabi\bin\../lib/gcc/arm-none-eabi/4.6.3/../../../../arm-none-eabi/include/c++/4.6.3/bits\stl_algo.h **** 			     __comp);
 715:c:\program files\codesourcery\sourcery_codebench_lite_for_arm_eabi\bin\../lib/gcc/arm-none-eabi/4.6.3/../../../../arm-none-eabi/include/c++/4.6.3/bits\stl_algo.h ****     }
 716:c:\program files\codesourcery\sourcery_codebench_lite_for_arm_eabi\bin\../lib/gcc/arm-none-eabi/4.6.3/../../../../arm-none-eabi/include/c++/4.6.3/bits\stl_algo.h **** 
 717:c:\program files\codesourcery\sourcery_codebench_lite_for_arm_eabi\bin\../lib/gcc/arm-none-eabi/4.6.3/../../../../arm-none-eabi/include/c++/4.6.3/bits\stl_algo.h **** #ifdef __GXX_EXPERIMENTAL_CXX0X__
 718:c:\program files\codesourcery\sourcery_codebench_lite_for_arm_eabi\bin\../lib/gcc/arm-none-eabi/4.6.3/../../../../arm-none-eabi/include/c++/4.6.3/bits\stl_algo.h ****   /**
 719:c:\program files\codesourcery\sourcery_codebench_lite_for_arm_eabi\bin\../lib/gcc/arm-none-eabi/4.6.3/../../../../arm-none-eabi/include/c++/4.6.3/bits\stl_algo.h ****    *  @brief  Checks that a predicate is true for all the elements
 720:c:\program files\codesourcery\sourcery_codebench_lite_for_arm_eabi\bin\../lib/gcc/arm-none-eabi/4.6.3/../../../../arm-none-eabi/include/c++/4.6.3/bits\stl_algo.h ****    *          of a sequence.
 721:c:\program files\codesourcery\sourcery_codebench_lite_for_arm_eabi\bin\../lib/gcc/arm-none-eabi/4.6.3/../../../../arm-none-eabi/include/c++/4.6.3/bits\stl_algo.h ****    *  @ingroup non_mutating_algorithms
 722:c:\program files\codesourcery\sourcery_codebench_lite_for_arm_eabi\bin\../lib/gcc/arm-none-eabi/4.6.3/../../../../arm-none-eabi/include/c++/4.6.3/bits\stl_algo.h ****    *  @param  first   An input iterator.
 723:c:\program files\codesourcery\sourcery_codebench_lite_for_arm_eabi\bin\../lib/gcc/arm-none-eabi/4.6.3/../../../../arm-none-eabi/include/c++/4.6.3/bits\stl_algo.h ****    *  @param  last    An input iterator.
 724:c:\program files\codesourcery\sourcery_codebench_lite_for_arm_eabi\bin\../lib/gcc/arm-none-eabi/4.6.3/../../../../arm-none-eabi/include/c++/4.6.3/bits\stl_algo.h ****    *  @param  pred    A predicate.
 725:c:\program files\codesourcery\sourcery_codebench_lite_for_arm_eabi\bin\../lib/gcc/arm-none-eabi/4.6.3/../../../../arm-none-eabi/include/c++/4.6.3/bits\stl_algo.h ****    *  @return  True if the check is true, false otherwise.
 726:c:\program files\codesourcery\sourcery_codebench_lite_for_arm_eabi\bin\../lib/gcc/arm-none-eabi/4.6.3/../../../../arm-none-eabi/include/c++/4.6.3/bits\stl_algo.h ****    *
 727:c:\program files\codesourcery\sourcery_codebench_lite_for_arm_eabi\bin\../lib/gcc/arm-none-eabi/4.6.3/../../../../arm-none-eabi/include/c++/4.6.3/bits\stl_algo.h ****    *  Returns true if @p pred is true for each element in the range
 728:c:\program files\codesourcery\sourcery_codebench_lite_for_arm_eabi\bin\../lib/gcc/arm-none-eabi/4.6.3/../../../../arm-none-eabi/include/c++/4.6.3/bits\stl_algo.h ****    *  @p [first,last), and false otherwise.
 729:c:\program files\codesourcery\sourcery_codebench_lite_for_arm_eabi\bin\../lib/gcc/arm-none-eabi/4.6.3/../../../../arm-none-eabi/include/c++/4.6.3/bits\stl_algo.h ****   */
 730:c:\program files\codesourcery\sourcery_codebench_lite_for_arm_eabi\bin\../lib/gcc/arm-none-eabi/4.6.3/../../../../arm-none-eabi/include/c++/4.6.3/bits\stl_algo.h ****   template<typename _InputIterator, typename _Predicate>
 731:c:\program files\codesourcery\sourcery_codebench_lite_for_arm_eabi\bin\../lib/gcc/arm-none-eabi/4.6.3/../../../../arm-none-eabi/include/c++/4.6.3/bits\stl_algo.h ****     inline bool
 732:c:\program files\codesourcery\sourcery_codebench_lite_for_arm_eabi\bin\../lib/gcc/arm-none-eabi/4.6.3/../../../../arm-none-eabi/include/c++/4.6.3/bits\stl_algo.h ****     all_of(_InputIterator __first, _InputIterator __last, _Predicate __pred)
 733:c:\program files\codesourcery\sourcery_codebench_lite_for_arm_eabi\bin\../lib/gcc/arm-none-eabi/4.6.3/../../../../arm-none-eabi/include/c++/4.6.3/bits\stl_algo.h ****     { return __last == std::find_if_not(__first, __last, __pred); }
 734:c:\program files\codesourcery\sourcery_codebench_lite_for_arm_eabi\bin\../lib/gcc/arm-none-eabi/4.6.3/../../../../arm-none-eabi/include/c++/4.6.3/bits\stl_algo.h **** 
 735:c:\program files\codesourcery\sourcery_codebench_lite_for_arm_eabi\bin\../lib/gcc/arm-none-eabi/4.6.3/../../../../arm-none-eabi/include/c++/4.6.3/bits\stl_algo.h ****   /**
 736:c:\program files\codesourcery\sourcery_codebench_lite_for_arm_eabi\bin\../lib/gcc/arm-none-eabi/4.6.3/../../../../arm-none-eabi/include/c++/4.6.3/bits\stl_algo.h ****    *  @brief  Checks that a predicate is false for all the elements
 737:c:\program files\codesourcery\sourcery_codebench_lite_for_arm_eabi\bin\../lib/gcc/arm-none-eabi/4.6.3/../../../../arm-none-eabi/include/c++/4.6.3/bits\stl_algo.h ****    *          of a sequence.
 738:c:\program files\codesourcery\sourcery_codebench_lite_for_arm_eabi\bin\../lib/gcc/arm-none-eabi/4.6.3/../../../../arm-none-eabi/include/c++/4.6.3/bits\stl_algo.h ****    *  @ingroup non_mutating_algorithms
 739:c:\program files\codesourcery\sourcery_codebench_lite_for_arm_eabi\bin\../lib/gcc/arm-none-eabi/4.6.3/../../../../arm-none-eabi/include/c++/4.6.3/bits\stl_algo.h ****    *  @param  first   An input iterator.
 740:c:\program files\codesourcery\sourcery_codebench_lite_for_arm_eabi\bin\../lib/gcc/arm-none-eabi/4.6.3/../../../../arm-none-eabi/include/c++/4.6.3/bits\stl_algo.h ****    *  @param  last    An input iterator.
 741:c:\program files\codesourcery\sourcery_codebench_lite_for_arm_eabi\bin\../lib/gcc/arm-none-eabi/4.6.3/../../../../arm-none-eabi/include/c++/4.6.3/bits\stl_algo.h ****    *  @param  pred    A predicate.
 742:c:\program files\codesourcery\sourcery_codebench_lite_for_arm_eabi\bin\../lib/gcc/arm-none-eabi/4.6.3/../../../../arm-none-eabi/include/c++/4.6.3/bits\stl_algo.h ****    *  @return  True if the check is true, false otherwise.
 743:c:\program files\codesourcery\sourcery_codebench_lite_for_arm_eabi\bin\../lib/gcc/arm-none-eabi/4.6.3/../../../../arm-none-eabi/include/c++/4.6.3/bits\stl_algo.h ****    *
 744:c:\program files\codesourcery\sourcery_codebench_lite_for_arm_eabi\bin\../lib/gcc/arm-none-eabi/4.6.3/../../../../arm-none-eabi/include/c++/4.6.3/bits\stl_algo.h ****    *  Returns true if @p pred is false for each element in the range
 745:c:\program files\codesourcery\sourcery_codebench_lite_for_arm_eabi\bin\../lib/gcc/arm-none-eabi/4.6.3/../../../../arm-none-eabi/include/c++/4.6.3/bits\stl_algo.h ****    *  @p [first,last), and false otherwise.
 746:c:\program files\codesourcery\sourcery_codebench_lite_for_arm_eabi\bin\../lib/gcc/arm-none-eabi/4.6.3/../../../../arm-none-eabi/include/c++/4.6.3/bits\stl_algo.h ****   */
 747:c:\program files\codesourcery\sourcery_codebench_lite_for_arm_eabi\bin\../lib/gcc/arm-none-eabi/4.6.3/../../../../arm-none-eabi/include/c++/4.6.3/bits\stl_algo.h ****   template<typename _InputIterator, typename _Predicate>
 748:c:\program files\codesourcery\sourcery_codebench_lite_for_arm_eabi\bin\../lib/gcc/arm-none-eabi/4.6.3/../../../../arm-none-eabi/include/c++/4.6.3/bits\stl_algo.h ****     inline bool
 749:c:\program files\codesourcery\sourcery_codebench_lite_for_arm_eabi\bin\../lib/gcc/arm-none-eabi/4.6.3/../../../../arm-none-eabi/include/c++/4.6.3/bits\stl_algo.h ****     none_of(_InputIterator __first, _InputIterator __last, _Predicate __pred)
 750:c:\program files\codesourcery\sourcery_codebench_lite_for_arm_eabi\bin\../lib/gcc/arm-none-eabi/4.6.3/../../../../arm-none-eabi/include/c++/4.6.3/bits\stl_algo.h ****     { return __last == _GLIBCXX_STD_A::find_if(__first, __last, __pred); }
 751:c:\program files\codesourcery\sourcery_codebench_lite_for_arm_eabi\bin\../lib/gcc/arm-none-eabi/4.6.3/../../../../arm-none-eabi/include/c++/4.6.3/bits\stl_algo.h **** 
 752:c:\program files\codesourcery\sourcery_codebench_lite_for_arm_eabi\bin\../lib/gcc/arm-none-eabi/4.6.3/../../../../arm-none-eabi/include/c++/4.6.3/bits\stl_algo.h ****   /**
 753:c:\program files\codesourcery\sourcery_codebench_lite_for_arm_eabi\bin\../lib/gcc/arm-none-eabi/4.6.3/../../../../arm-none-eabi/include/c++/4.6.3/bits\stl_algo.h ****    *  @brief  Checks that a predicate is false for at least an element
 754:c:\program files\codesourcery\sourcery_codebench_lite_for_arm_eabi\bin\../lib/gcc/arm-none-eabi/4.6.3/../../../../arm-none-eabi/include/c++/4.6.3/bits\stl_algo.h ****    *          of a sequence.
 755:c:\program files\codesourcery\sourcery_codebench_lite_for_arm_eabi\bin\../lib/gcc/arm-none-eabi/4.6.3/../../../../arm-none-eabi/include/c++/4.6.3/bits\stl_algo.h ****    *  @ingroup non_mutating_algorithms
 756:c:\program files\codesourcery\sourcery_codebench_lite_for_arm_eabi\bin\../lib/gcc/arm-none-eabi/4.6.3/../../../../arm-none-eabi/include/c++/4.6.3/bits\stl_algo.h ****    *  @param  first   An input iterator.
 757:c:\program files\codesourcery\sourcery_codebench_lite_for_arm_eabi\bin\../lib/gcc/arm-none-eabi/4.6.3/../../../../arm-none-eabi/include/c++/4.6.3/bits\stl_algo.h ****    *  @param  last    An input iterator.
 758:c:\program files\codesourcery\sourcery_codebench_lite_for_arm_eabi\bin\../lib/gcc/arm-none-eabi/4.6.3/../../../../arm-none-eabi/include/c++/4.6.3/bits\stl_algo.h ****    *  @param  pred    A predicate.
 759:c:\program files\codesourcery\sourcery_codebench_lite_for_arm_eabi\bin\../lib/gcc/arm-none-eabi/4.6.3/../../../../arm-none-eabi/include/c++/4.6.3/bits\stl_algo.h ****    *  @return  True if the check is true, false otherwise.
 760:c:\program files\codesourcery\sourcery_codebench_lite_for_arm_eabi\bin\../lib/gcc/arm-none-eabi/4.6.3/../../../../arm-none-eabi/include/c++/4.6.3/bits\stl_algo.h ****    *
 761:c:\program files\codesourcery\sourcery_codebench_lite_for_arm_eabi\bin\../lib/gcc/arm-none-eabi/4.6.3/../../../../arm-none-eabi/include/c++/4.6.3/bits\stl_algo.h ****    *  Returns true if an element exists in the range @p [first,last) such that
 762:c:\program files\codesourcery\sourcery_codebench_lite_for_arm_eabi\bin\../lib/gcc/arm-none-eabi/4.6.3/../../../../arm-none-eabi/include/c++/4.6.3/bits\stl_algo.h ****    *  @p pred is true, and false otherwise.
 763:c:\program files\codesourcery\sourcery_codebench_lite_for_arm_eabi\bin\../lib/gcc/arm-none-eabi/4.6.3/../../../../arm-none-eabi/include/c++/4.6.3/bits\stl_algo.h ****   */
 764:c:\program files\codesourcery\sourcery_codebench_lite_for_arm_eabi\bin\../lib/gcc/arm-none-eabi/4.6.3/../../../../arm-none-eabi/include/c++/4.6.3/bits\stl_algo.h ****   template<typename _InputIterator, typename _Predicate>
 765:c:\program files\codesourcery\sourcery_codebench_lite_for_arm_eabi\bin\../lib/gcc/arm-none-eabi/4.6.3/../../../../arm-none-eabi/include/c++/4.6.3/bits\stl_algo.h ****     inline bool
 766:c:\program files\codesourcery\sourcery_codebench_lite_for_arm_eabi\bin\../lib/gcc/arm-none-eabi/4.6.3/../../../../arm-none-eabi/include/c++/4.6.3/bits\stl_algo.h ****     any_of(_InputIterator __first, _InputIterator __last, _Predicate __pred)
 767:c:\program files\codesourcery\sourcery_codebench_lite_for_arm_eabi\bin\../lib/gcc/arm-none-eabi/4.6.3/../../../../arm-none-eabi/include/c++/4.6.3/bits\stl_algo.h ****     { return !std::none_of(__first, __last, __pred); }
 768:c:\program files\codesourcery\sourcery_codebench_lite_for_arm_eabi\bin\../lib/gcc/arm-none-eabi/4.6.3/../../../../arm-none-eabi/include/c++/4.6.3/bits\stl_algo.h **** 
 769:c:\program files\codesourcery\sourcery_codebench_lite_for_arm_eabi\bin\../lib/gcc/arm-none-eabi/4.6.3/../../../../arm-none-eabi/include/c++/4.6.3/bits\stl_algo.h ****   /**
 770:c:\program files\codesourcery\sourcery_codebench_lite_for_arm_eabi\bin\../lib/gcc/arm-none-eabi/4.6.3/../../../../arm-none-eabi/include/c++/4.6.3/bits\stl_algo.h ****    *  @brief  Find the first element in a sequence for which a
 771:c:\program files\codesourcery\sourcery_codebench_lite_for_arm_eabi\bin\../lib/gcc/arm-none-eabi/4.6.3/../../../../arm-none-eabi/include/c++/4.6.3/bits\stl_algo.h ****    *          predicate is false.
 772:c:\program files\codesourcery\sourcery_codebench_lite_for_arm_eabi\bin\../lib/gcc/arm-none-eabi/4.6.3/../../../../arm-none-eabi/include/c++/4.6.3/bits\stl_algo.h ****    *  @ingroup non_mutating_algorithms
 773:c:\program files\codesourcery\sourcery_codebench_lite_for_arm_eabi\bin\../lib/gcc/arm-none-eabi/4.6.3/../../../../arm-none-eabi/include/c++/4.6.3/bits\stl_algo.h ****    *  @param  first  An input iterator.
 774:c:\program files\codesourcery\sourcery_codebench_lite_for_arm_eabi\bin\../lib/gcc/arm-none-eabi/4.6.3/../../../../arm-none-eabi/include/c++/4.6.3/bits\stl_algo.h ****    *  @param  last   An input iterator.
 775:c:\program files\codesourcery\sourcery_codebench_lite_for_arm_eabi\bin\../lib/gcc/arm-none-eabi/4.6.3/../../../../arm-none-eabi/include/c++/4.6.3/bits\stl_algo.h ****    *  @param  pred   A predicate.
 776:c:\program files\codesourcery\sourcery_codebench_lite_for_arm_eabi\bin\../lib/gcc/arm-none-eabi/4.6.3/../../../../arm-none-eabi/include/c++/4.6.3/bits\stl_algo.h ****    *  @return   The first iterator @c i in the range @p [first,last)
 777:c:\program files\codesourcery\sourcery_codebench_lite_for_arm_eabi\bin\../lib/gcc/arm-none-eabi/4.6.3/../../../../arm-none-eabi/include/c++/4.6.3/bits\stl_algo.h ****    *  such that @p pred(*i) is false, or @p last if no such iterator exists.
 778:c:\program files\codesourcery\sourcery_codebench_lite_for_arm_eabi\bin\../lib/gcc/arm-none-eabi/4.6.3/../../../../arm-none-eabi/include/c++/4.6.3/bits\stl_algo.h ****   */
 779:c:\program files\codesourcery\sourcery_codebench_lite_for_arm_eabi\bin\../lib/gcc/arm-none-eabi/4.6.3/../../../../arm-none-eabi/include/c++/4.6.3/bits\stl_algo.h ****   template<typename _InputIterator, typename _Predicate>
 780:c:\program files\codesourcery\sourcery_codebench_lite_for_arm_eabi\bin\../lib/gcc/arm-none-eabi/4.6.3/../../../../arm-none-eabi/include/c++/4.6.3/bits\stl_algo.h ****     inline _InputIterator
 781:c:\program files\codesourcery\sourcery_codebench_lite_for_arm_eabi\bin\../lib/gcc/arm-none-eabi/4.6.3/../../../../arm-none-eabi/include/c++/4.6.3/bits\stl_algo.h ****     find_if_not(_InputIterator __first, _InputIterator __last,
 782:c:\program files\codesourcery\sourcery_codebench_lite_for_arm_eabi\bin\../lib/gcc/arm-none-eabi/4.6.3/../../../../arm-none-eabi/include/c++/4.6.3/bits\stl_algo.h **** 		_Predicate __pred)
 783:c:\program files\codesourcery\sourcery_codebench_lite_for_arm_eabi\bin\../lib/gcc/arm-none-eabi/4.6.3/../../../../arm-none-eabi/include/c++/4.6.3/bits\stl_algo.h ****     {
 784:c:\program files\codesourcery\sourcery_codebench_lite_for_arm_eabi\bin\../lib/gcc/arm-none-eabi/4.6.3/../../../../arm-none-eabi/include/c++/4.6.3/bits\stl_algo.h ****       // concept requirements
 785:c:\program files\codesourcery\sourcery_codebench_lite_for_arm_eabi\bin\../lib/gcc/arm-none-eabi/4.6.3/../../../../arm-none-eabi/include/c++/4.6.3/bits\stl_algo.h ****       __glibcxx_function_requires(_InputIteratorConcept<_InputIterator>)
 786:c:\program files\codesourcery\sourcery_codebench_lite_for_arm_eabi\bin\../lib/gcc/arm-none-eabi/4.6.3/../../../../arm-none-eabi/include/c++/4.6.3/bits\stl_algo.h ****       __glibcxx_function_requires(_UnaryPredicateConcept<_Predicate,
 787:c:\program files\codesourcery\sourcery_codebench_lite_for_arm_eabi\bin\../lib/gcc/arm-none-eabi/4.6.3/../../../../arm-none-eabi/include/c++/4.6.3/bits\stl_algo.h **** 	      typename iterator_traits<_InputIterator>::value_type>)
 788:c:\program files\codesourcery\sourcery_codebench_lite_for_arm_eabi\bin\../lib/gcc/arm-none-eabi/4.6.3/../../../../arm-none-eabi/include/c++/4.6.3/bits\stl_algo.h ****       __glibcxx_requires_valid_range(__first, __last);
 789:c:\program files\codesourcery\sourcery_codebench_lite_for_arm_eabi\bin\../lib/gcc/arm-none-eabi/4.6.3/../../../../arm-none-eabi/include/c++/4.6.3/bits\stl_algo.h ****       return std::__find_if_not(__first, __last, __pred,
 790:c:\program files\codesourcery\sourcery_codebench_lite_for_arm_eabi\bin\../lib/gcc/arm-none-eabi/4.6.3/../../../../arm-none-eabi/include/c++/4.6.3/bits\stl_algo.h **** 				std::__iterator_category(__first));
 791:c:\program files\codesourcery\sourcery_codebench_lite_for_arm_eabi\bin\../lib/gcc/arm-none-eabi/4.6.3/../../../../arm-none-eabi/include/c++/4.6.3/bits\stl_algo.h ****     }
 792:c:\program files\codesourcery\sourcery_codebench_lite_for_arm_eabi\bin\../lib/gcc/arm-none-eabi/4.6.3/../../../../arm-none-eabi/include/c++/4.6.3/bits\stl_algo.h **** 
 793:c:\program files\codesourcery\sourcery_codebench_lite_for_arm_eabi\bin\../lib/gcc/arm-none-eabi/4.6.3/../../../../arm-none-eabi/include/c++/4.6.3/bits\stl_algo.h ****   /**
 794:c:\program files\codesourcery\sourcery_codebench_lite_for_arm_eabi\bin\../lib/gcc/arm-none-eabi/4.6.3/../../../../arm-none-eabi/include/c++/4.6.3/bits\stl_algo.h ****    *  @brief  Checks whether the sequence is partitioned.
 795:c:\program files\codesourcery\sourcery_codebench_lite_for_arm_eabi\bin\../lib/gcc/arm-none-eabi/4.6.3/../../../../arm-none-eabi/include/c++/4.6.3/bits\stl_algo.h ****    *  @ingroup mutating_algorithms
 796:c:\program files\codesourcery\sourcery_codebench_lite_for_arm_eabi\bin\../lib/gcc/arm-none-eabi/4.6.3/../../../../arm-none-eabi/include/c++/4.6.3/bits\stl_algo.h ****    *  @param  first  An input iterator.
 797:c:\program files\codesourcery\sourcery_codebench_lite_for_arm_eabi\bin\../lib/gcc/arm-none-eabi/4.6.3/../../../../arm-none-eabi/include/c++/4.6.3/bits\stl_algo.h ****    *  @param  last   An input iterator.
 798:c:\program files\codesourcery\sourcery_codebench_lite_for_arm_eabi\bin\../lib/gcc/arm-none-eabi/4.6.3/../../../../arm-none-eabi/include/c++/4.6.3/bits\stl_algo.h ****    *  @param  pred   A predicate.
 799:c:\program files\codesourcery\sourcery_codebench_lite_for_arm_eabi\bin\../lib/gcc/arm-none-eabi/4.6.3/../../../../arm-none-eabi/include/c++/4.6.3/bits\stl_algo.h ****    *  @return  True if the range @p [first,last) is partioned by @p pred,
 800:c:\program files\codesourcery\sourcery_codebench_lite_for_arm_eabi\bin\../lib/gcc/arm-none-eabi/4.6.3/../../../../arm-none-eabi/include/c++/4.6.3/bits\stl_algo.h ****    *  i.e. if all elements that satisfy @p pred appear before those that
 801:c:\program files\codesourcery\sourcery_codebench_lite_for_arm_eabi\bin\../lib/gcc/arm-none-eabi/4.6.3/../../../../arm-none-eabi/include/c++/4.6.3/bits\stl_algo.h ****    *  do not.
 802:c:\program files\codesourcery\sourcery_codebench_lite_for_arm_eabi\bin\../lib/gcc/arm-none-eabi/4.6.3/../../../../arm-none-eabi/include/c++/4.6.3/bits\stl_algo.h ****   */
 803:c:\program files\codesourcery\sourcery_codebench_lite_for_arm_eabi\bin\../lib/gcc/arm-none-eabi/4.6.3/../../../../arm-none-eabi/include/c++/4.6.3/bits\stl_algo.h ****   template<typename _InputIterator, typename _Predicate>
 804:c:\program files\codesourcery\sourcery_codebench_lite_for_arm_eabi\bin\../lib/gcc/arm-none-eabi/4.6.3/../../../../arm-none-eabi/include/c++/4.6.3/bits\stl_algo.h ****     inline bool
 805:c:\program files\codesourcery\sourcery_codebench_lite_for_arm_eabi\bin\../lib/gcc/arm-none-eabi/4.6.3/../../../../arm-none-eabi/include/c++/4.6.3/bits\stl_algo.h ****     is_partitioned(_InputIterator __first, _InputIterator __last,
 806:c:\program files\codesourcery\sourcery_codebench_lite_for_arm_eabi\bin\../lib/gcc/arm-none-eabi/4.6.3/../../../../arm-none-eabi/include/c++/4.6.3/bits\stl_algo.h **** 		   _Predicate __pred)
 807:c:\program files\codesourcery\sourcery_codebench_lite_for_arm_eabi\bin\../lib/gcc/arm-none-eabi/4.6.3/../../../../arm-none-eabi/include/c++/4.6.3/bits\stl_algo.h ****     {
 808:c:\program files\codesourcery\sourcery_codebench_lite_for_arm_eabi\bin\../lib/gcc/arm-none-eabi/4.6.3/../../../../arm-none-eabi/include/c++/4.6.3/bits\stl_algo.h ****       __first = std::find_if_not(__first, __last, __pred);
 809:c:\program files\codesourcery\sourcery_codebench_lite_for_arm_eabi\bin\../lib/gcc/arm-none-eabi/4.6.3/../../../../arm-none-eabi/include/c++/4.6.3/bits\stl_algo.h ****       return std::none_of(__first, __last, __pred);
 810:c:\program files\codesourcery\sourcery_codebench_lite_for_arm_eabi\bin\../lib/gcc/arm-none-eabi/4.6.3/../../../../arm-none-eabi/include/c++/4.6.3/bits\stl_algo.h ****     }
 811:c:\program files\codesourcery\sourcery_codebench_lite_for_arm_eabi\bin\../lib/gcc/arm-none-eabi/4.6.3/../../../../arm-none-eabi/include/c++/4.6.3/bits\stl_algo.h **** 
 812:c:\program files\codesourcery\sourcery_codebench_lite_for_arm_eabi\bin\../lib/gcc/arm-none-eabi/4.6.3/../../../../arm-none-eabi/include/c++/4.6.3/bits\stl_algo.h ****   /**
 813:c:\program files\codesourcery\sourcery_codebench_lite_for_arm_eabi\bin\../lib/gcc/arm-none-eabi/4.6.3/../../../../arm-none-eabi/include/c++/4.6.3/bits\stl_algo.h ****    *  @brief  Find the partition point of a partitioned range.
 814:c:\program files\codesourcery\sourcery_codebench_lite_for_arm_eabi\bin\../lib/gcc/arm-none-eabi/4.6.3/../../../../arm-none-eabi/include/c++/4.6.3/bits\stl_algo.h ****    *  @ingroup mutating_algorithms
 815:c:\program files\codesourcery\sourcery_codebench_lite_for_arm_eabi\bin\../lib/gcc/arm-none-eabi/4.6.3/../../../../arm-none-eabi/include/c++/4.6.3/bits\stl_algo.h ****    *  @param  first   An iterator.
 816:c:\program files\codesourcery\sourcery_codebench_lite_for_arm_eabi\bin\../lib/gcc/arm-none-eabi/4.6.3/../../../../arm-none-eabi/include/c++/4.6.3/bits\stl_algo.h ****    *  @param  last    Another iterator.
 817:c:\program files\codesourcery\sourcery_codebench_lite_for_arm_eabi\bin\../lib/gcc/arm-none-eabi/4.6.3/../../../../arm-none-eabi/include/c++/4.6.3/bits\stl_algo.h ****    *  @param  pred    A predicate.
 818:c:\program files\codesourcery\sourcery_codebench_lite_for_arm_eabi\bin\../lib/gcc/arm-none-eabi/4.6.3/../../../../arm-none-eabi/include/c++/4.6.3/bits\stl_algo.h ****    *  @return  An iterator @p mid such that @p all_of(first, mid, pred)
 819:c:\program files\codesourcery\sourcery_codebench_lite_for_arm_eabi\bin\../lib/gcc/arm-none-eabi/4.6.3/../../../../arm-none-eabi/include/c++/4.6.3/bits\stl_algo.h ****    *           and @p none_of(mid, last, pred) are both true.
 820:c:\program files\codesourcery\sourcery_codebench_lite_for_arm_eabi\bin\../lib/gcc/arm-none-eabi/4.6.3/../../../../arm-none-eabi/include/c++/4.6.3/bits\stl_algo.h ****   */
 821:c:\program files\codesourcery\sourcery_codebench_lite_for_arm_eabi\bin\../lib/gcc/arm-none-eabi/4.6.3/../../../../arm-none-eabi/include/c++/4.6.3/bits\stl_algo.h ****   template<typename _ForwardIterator, typename _Predicate>
 822:c:\program files\codesourcery\sourcery_codebench_lite_for_arm_eabi\bin\../lib/gcc/arm-none-eabi/4.6.3/../../../../arm-none-eabi/include/c++/4.6.3/bits\stl_algo.h ****     _ForwardIterator
 823:c:\program files\codesourcery\sourcery_codebench_lite_for_arm_eabi\bin\../lib/gcc/arm-none-eabi/4.6.3/../../../../arm-none-eabi/include/c++/4.6.3/bits\stl_algo.h ****     partition_point(_ForwardIterator __first, _ForwardIterator __last,
 824:c:\program files\codesourcery\sourcery_codebench_lite_for_arm_eabi\bin\../lib/gcc/arm-none-eabi/4.6.3/../../../../arm-none-eabi/include/c++/4.6.3/bits\stl_algo.h **** 		    _Predicate __pred)
 825:c:\program files\codesourcery\sourcery_codebench_lite_for_arm_eabi\bin\../lib/gcc/arm-none-eabi/4.6.3/../../../../arm-none-eabi/include/c++/4.6.3/bits\stl_algo.h ****     {
 826:c:\program files\codesourcery\sourcery_codebench_lite_for_arm_eabi\bin\../lib/gcc/arm-none-eabi/4.6.3/../../../../arm-none-eabi/include/c++/4.6.3/bits\stl_algo.h ****       // concept requirements
 827:c:\program files\codesourcery\sourcery_codebench_lite_for_arm_eabi\bin\../lib/gcc/arm-none-eabi/4.6.3/../../../../arm-none-eabi/include/c++/4.6.3/bits\stl_algo.h ****       __glibcxx_function_requires(_ForwardIteratorConcept<_ForwardIterator>)
 828:c:\program files\codesourcery\sourcery_codebench_lite_for_arm_eabi\bin\../lib/gcc/arm-none-eabi/4.6.3/../../../../arm-none-eabi/include/c++/4.6.3/bits\stl_algo.h ****       __glibcxx_function_requires(_UnaryPredicateConcept<_Predicate,
 829:c:\program files\codesourcery\sourcery_codebench_lite_for_arm_eabi\bin\../lib/gcc/arm-none-eabi/4.6.3/../../../../arm-none-eabi/include/c++/4.6.3/bits\stl_algo.h **** 	      typename iterator_traits<_ForwardIterator>::value_type>)
 830:c:\program files\codesourcery\sourcery_codebench_lite_for_arm_eabi\bin\../lib/gcc/arm-none-eabi/4.6.3/../../../../arm-none-eabi/include/c++/4.6.3/bits\stl_algo.h **** 
 831:c:\program files\codesourcery\sourcery_codebench_lite_for_arm_eabi\bin\../lib/gcc/arm-none-eabi/4.6.3/../../../../arm-none-eabi/include/c++/4.6.3/bits\stl_algo.h ****       // A specific debug-mode test will be necessary...
 832:c:\program files\codesourcery\sourcery_codebench_lite_for_arm_eabi\bin\../lib/gcc/arm-none-eabi/4.6.3/../../../../arm-none-eabi/include/c++/4.6.3/bits\stl_algo.h ****       __glibcxx_requires_valid_range(__first, __last);
 833:c:\program files\codesourcery\sourcery_codebench_lite_for_arm_eabi\bin\../lib/gcc/arm-none-eabi/4.6.3/../../../../arm-none-eabi/include/c++/4.6.3/bits\stl_algo.h **** 
 834:c:\program files\codesourcery\sourcery_codebench_lite_for_arm_eabi\bin\../lib/gcc/arm-none-eabi/4.6.3/../../../../arm-none-eabi/include/c++/4.6.3/bits\stl_algo.h ****       typedef typename iterator_traits<_ForwardIterator>::difference_type
 835:c:\program files\codesourcery\sourcery_codebench_lite_for_arm_eabi\bin\../lib/gcc/arm-none-eabi/4.6.3/../../../../arm-none-eabi/include/c++/4.6.3/bits\stl_algo.h **** 	_DistanceType;
 836:c:\program files\codesourcery\sourcery_codebench_lite_for_arm_eabi\bin\../lib/gcc/arm-none-eabi/4.6.3/../../../../arm-none-eabi/include/c++/4.6.3/bits\stl_algo.h **** 
 837:c:\program files\codesourcery\sourcery_codebench_lite_for_arm_eabi\bin\../lib/gcc/arm-none-eabi/4.6.3/../../../../arm-none-eabi/include/c++/4.6.3/bits\stl_algo.h ****       _DistanceType __len = std::distance(__first, __last);
 838:c:\program files\codesourcery\sourcery_codebench_lite_for_arm_eabi\bin\../lib/gcc/arm-none-eabi/4.6.3/../../../../arm-none-eabi/include/c++/4.6.3/bits\stl_algo.h ****       _DistanceType __half;
 839:c:\program files\codesourcery\sourcery_codebench_lite_for_arm_eabi\bin\../lib/gcc/arm-none-eabi/4.6.3/../../../../arm-none-eabi/include/c++/4.6.3/bits\stl_algo.h ****       _ForwardIterator __middle;
 840:c:\program files\codesourcery\sourcery_codebench_lite_for_arm_eabi\bin\../lib/gcc/arm-none-eabi/4.6.3/../../../../arm-none-eabi/include/c++/4.6.3/bits\stl_algo.h **** 
 841:c:\program files\codesourcery\sourcery_codebench_lite_for_arm_eabi\bin\../lib/gcc/arm-none-eabi/4.6.3/../../../../arm-none-eabi/include/c++/4.6.3/bits\stl_algo.h ****       while (__len > 0)
 842:c:\program files\codesourcery\sourcery_codebench_lite_for_arm_eabi\bin\../lib/gcc/arm-none-eabi/4.6.3/../../../../arm-none-eabi/include/c++/4.6.3/bits\stl_algo.h **** 	{
 843:c:\program files\codesourcery\sourcery_codebench_lite_for_arm_eabi\bin\../lib/gcc/arm-none-eabi/4.6.3/../../../../arm-none-eabi/include/c++/4.6.3/bits\stl_algo.h **** 	  __half = __len >> 1;
 844:c:\program files\codesourcery\sourcery_codebench_lite_for_arm_eabi\bin\../lib/gcc/arm-none-eabi/4.6.3/../../../../arm-none-eabi/include/c++/4.6.3/bits\stl_algo.h **** 	  __middle = __first;
 845:c:\program files\codesourcery\sourcery_codebench_lite_for_arm_eabi\bin\../lib/gcc/arm-none-eabi/4.6.3/../../../../arm-none-eabi/include/c++/4.6.3/bits\stl_algo.h **** 	  std::advance(__middle, __half);
 846:c:\program files\codesourcery\sourcery_codebench_lite_for_arm_eabi\bin\../lib/gcc/arm-none-eabi/4.6.3/../../../../arm-none-eabi/include/c++/4.6.3/bits\stl_algo.h **** 	  if (__pred(*__middle))
 847:c:\program files\codesourcery\sourcery_codebench_lite_for_arm_eabi\bin\../lib/gcc/arm-none-eabi/4.6.3/../../../../arm-none-eabi/include/c++/4.6.3/bits\stl_algo.h **** 	    {
 848:c:\program files\codesourcery\sourcery_codebench_lite_for_arm_eabi\bin\../lib/gcc/arm-none-eabi/4.6.3/../../../../arm-none-eabi/include/c++/4.6.3/bits\stl_algo.h **** 	      __first = __middle;
 849:c:\program files\codesourcery\sourcery_codebench_lite_for_arm_eabi\bin\../lib/gcc/arm-none-eabi/4.6.3/../../../../arm-none-eabi/include/c++/4.6.3/bits\stl_algo.h **** 	      ++__first;
 850:c:\program files\codesourcery\sourcery_codebench_lite_for_arm_eabi\bin\../lib/gcc/arm-none-eabi/4.6.3/../../../../arm-none-eabi/include/c++/4.6.3/bits\stl_algo.h **** 	      __len = __len - __half - 1;
 851:c:\program files\codesourcery\sourcery_codebench_lite_for_arm_eabi\bin\../lib/gcc/arm-none-eabi/4.6.3/../../../../arm-none-eabi/include/c++/4.6.3/bits\stl_algo.h **** 	    }
 852:c:\program files\codesourcery\sourcery_codebench_lite_for_arm_eabi\bin\../lib/gcc/arm-none-eabi/4.6.3/../../../../arm-none-eabi/include/c++/4.6.3/bits\stl_algo.h **** 	  else
 853:c:\program files\codesourcery\sourcery_codebench_lite_for_arm_eabi\bin\../lib/gcc/arm-none-eabi/4.6.3/../../../../arm-none-eabi/include/c++/4.6.3/bits\stl_algo.h **** 	    __len = __half;
 854:c:\program files\codesourcery\sourcery_codebench_lite_for_arm_eabi\bin\../lib/gcc/arm-none-eabi/4.6.3/../../../../arm-none-eabi/include/c++/4.6.3/bits\stl_algo.h **** 	}
 855:c:\program files\codesourcery\sourcery_codebench_lite_for_arm_eabi\bin\../lib/gcc/arm-none-eabi/4.6.3/../../../../arm-none-eabi/include/c++/4.6.3/bits\stl_algo.h ****       return __first;
 856:c:\program files\codesourcery\sourcery_codebench_lite_for_arm_eabi\bin\../lib/gcc/arm-none-eabi/4.6.3/../../../../arm-none-eabi/include/c++/4.6.3/bits\stl_algo.h ****     }
 857:c:\program files\codesourcery\sourcery_codebench_lite_for_arm_eabi\bin\../lib/gcc/arm-none-eabi/4.6.3/../../../../arm-none-eabi/include/c++/4.6.3/bits\stl_algo.h **** #endif
 858:c:\program files\codesourcery\sourcery_codebench_lite_for_arm_eabi\bin\../lib/gcc/arm-none-eabi/4.6.3/../../../../arm-none-eabi/include/c++/4.6.3/bits\stl_algo.h **** 
 859:c:\program files\codesourcery\sourcery_codebench_lite_for_arm_eabi\bin\../lib/gcc/arm-none-eabi/4.6.3/../../../../arm-none-eabi/include/c++/4.6.3/bits\stl_algo.h **** 
 860:c:\program files\codesourcery\sourcery_codebench_lite_for_arm_eabi\bin\../lib/gcc/arm-none-eabi/4.6.3/../../../../arm-none-eabi/include/c++/4.6.3/bits\stl_algo.h ****   /**
 861:c:\program files\codesourcery\sourcery_codebench_lite_for_arm_eabi\bin\../lib/gcc/arm-none-eabi/4.6.3/../../../../arm-none-eabi/include/c++/4.6.3/bits\stl_algo.h ****    *  @brief Copy a sequence, removing elements of a given value.
 862:c:\program files\codesourcery\sourcery_codebench_lite_for_arm_eabi\bin\../lib/gcc/arm-none-eabi/4.6.3/../../../../arm-none-eabi/include/c++/4.6.3/bits\stl_algo.h ****    *  @ingroup mutating_algorithms
 863:c:\program files\codesourcery\sourcery_codebench_lite_for_arm_eabi\bin\../lib/gcc/arm-none-eabi/4.6.3/../../../../arm-none-eabi/include/c++/4.6.3/bits\stl_algo.h ****    *  @param  first   An input iterator.
 864:c:\program files\codesourcery\sourcery_codebench_lite_for_arm_eabi\bin\../lib/gcc/arm-none-eabi/4.6.3/../../../../arm-none-eabi/include/c++/4.6.3/bits\stl_algo.h ****    *  @param  last    An input iterator.
 865:c:\program files\codesourcery\sourcery_codebench_lite_for_arm_eabi\bin\../lib/gcc/arm-none-eabi/4.6.3/../../../../arm-none-eabi/include/c++/4.6.3/bits\stl_algo.h ****    *  @param  result  An output iterator.
 866:c:\program files\codesourcery\sourcery_codebench_lite_for_arm_eabi\bin\../lib/gcc/arm-none-eabi/4.6.3/../../../../arm-none-eabi/include/c++/4.6.3/bits\stl_algo.h ****    *  @param  value   The value to be removed.
 867:c:\program files\codesourcery\sourcery_codebench_lite_for_arm_eabi\bin\../lib/gcc/arm-none-eabi/4.6.3/../../../../arm-none-eabi/include/c++/4.6.3/bits\stl_algo.h ****    *  @return   An iterator designating the end of the resulting sequence.
 868:c:\program files\codesourcery\sourcery_codebench_lite_for_arm_eabi\bin\../lib/gcc/arm-none-eabi/4.6.3/../../../../arm-none-eabi/include/c++/4.6.3/bits\stl_algo.h ****    *
 869:c:\program files\codesourcery\sourcery_codebench_lite_for_arm_eabi\bin\../lib/gcc/arm-none-eabi/4.6.3/../../../../arm-none-eabi/include/c++/4.6.3/bits\stl_algo.h ****    *  Copies each element in the range @p [first,last) not equal to @p value
 870:c:\program files\codesourcery\sourcery_codebench_lite_for_arm_eabi\bin\../lib/gcc/arm-none-eabi/4.6.3/../../../../arm-none-eabi/include/c++/4.6.3/bits\stl_algo.h ****    *  to the range beginning at @p result.
 871:c:\program files\codesourcery\sourcery_codebench_lite_for_arm_eabi\bin\../lib/gcc/arm-none-eabi/4.6.3/../../../../arm-none-eabi/include/c++/4.6.3/bits\stl_algo.h ****    *  remove_copy() is stable, so the relative order of elements that are
 872:c:\program files\codesourcery\sourcery_codebench_lite_for_arm_eabi\bin\../lib/gcc/arm-none-eabi/4.6.3/../../../../arm-none-eabi/include/c++/4.6.3/bits\stl_algo.h ****    *  copied is unchanged.
 873:c:\program files\codesourcery\sourcery_codebench_lite_for_arm_eabi\bin\../lib/gcc/arm-none-eabi/4.6.3/../../../../arm-none-eabi/include/c++/4.6.3/bits\stl_algo.h ****   */
 874:c:\program files\codesourcery\sourcery_codebench_lite_for_arm_eabi\bin\../lib/gcc/arm-none-eabi/4.6.3/../../../../arm-none-eabi/include/c++/4.6.3/bits\stl_algo.h ****   template<typename _InputIterator, typename _OutputIterator, typename _Tp>
 875:c:\program files\codesourcery\sourcery_codebench_lite_for_arm_eabi\bin\../lib/gcc/arm-none-eabi/4.6.3/../../../../arm-none-eabi/include/c++/4.6.3/bits\stl_algo.h ****     _OutputIterator
 876:c:\program files\codesourcery\sourcery_codebench_lite_for_arm_eabi\bin\../lib/gcc/arm-none-eabi/4.6.3/../../../../arm-none-eabi/include/c++/4.6.3/bits\stl_algo.h ****     remove_copy(_InputIterator __first, _InputIterator __last,
 877:c:\program files\codesourcery\sourcery_codebench_lite_for_arm_eabi\bin\../lib/gcc/arm-none-eabi/4.6.3/../../../../arm-none-eabi/include/c++/4.6.3/bits\stl_algo.h **** 		_OutputIterator __result, const _Tp& __value)
 878:c:\program files\codesourcery\sourcery_codebench_lite_for_arm_eabi\bin\../lib/gcc/arm-none-eabi/4.6.3/../../../../arm-none-eabi/include/c++/4.6.3/bits\stl_algo.h ****     {
 879:c:\program files\codesourcery\sourcery_codebench_lite_for_arm_eabi\bin\../lib/gcc/arm-none-eabi/4.6.3/../../../../arm-none-eabi/include/c++/4.6.3/bits\stl_algo.h ****       // concept requirements
 880:c:\program files\codesourcery\sourcery_codebench_lite_for_arm_eabi\bin\../lib/gcc/arm-none-eabi/4.6.3/../../../../arm-none-eabi/include/c++/4.6.3/bits\stl_algo.h ****       __glibcxx_function_requires(_InputIteratorConcept<_InputIterator>)
 881:c:\program files\codesourcery\sourcery_codebench_lite_for_arm_eabi\bin\../lib/gcc/arm-none-eabi/4.6.3/../../../../arm-none-eabi/include/c++/4.6.3/bits\stl_algo.h ****       __glibcxx_function_requires(_OutputIteratorConcept<_OutputIterator,
 882:c:\program files\codesourcery\sourcery_codebench_lite_for_arm_eabi\bin\../lib/gcc/arm-none-eabi/4.6.3/../../../../arm-none-eabi/include/c++/4.6.3/bits\stl_algo.h **** 	    typename iterator_traits<_InputIterator>::value_type>)
 883:c:\program files\codesourcery\sourcery_codebench_lite_for_arm_eabi\bin\../lib/gcc/arm-none-eabi/4.6.3/../../../../arm-none-eabi/include/c++/4.6.3/bits\stl_algo.h ****       __glibcxx_function_requires(_EqualOpConcept<
 884:c:\program files\codesourcery\sourcery_codebench_lite_for_arm_eabi\bin\../lib/gcc/arm-none-eabi/4.6.3/../../../../arm-none-eabi/include/c++/4.6.3/bits\stl_algo.h **** 	    typename iterator_traits<_InputIterator>::value_type, _Tp>)
 885:c:\program files\codesourcery\sourcery_codebench_lite_for_arm_eabi\bin\../lib/gcc/arm-none-eabi/4.6.3/../../../../arm-none-eabi/include/c++/4.6.3/bits\stl_algo.h ****       __glibcxx_requires_valid_range(__first, __last);
 886:c:\program files\codesourcery\sourcery_codebench_lite_for_arm_eabi\bin\../lib/gcc/arm-none-eabi/4.6.3/../../../../arm-none-eabi/include/c++/4.6.3/bits\stl_algo.h **** 
 887:c:\program files\codesourcery\sourcery_codebench_lite_for_arm_eabi\bin\../lib/gcc/arm-none-eabi/4.6.3/../../../../arm-none-eabi/include/c++/4.6.3/bits\stl_algo.h ****       for (; __first != __last; ++__first)
 888:c:\program files\codesourcery\sourcery_codebench_lite_for_arm_eabi\bin\../lib/gcc/arm-none-eabi/4.6.3/../../../../arm-none-eabi/include/c++/4.6.3/bits\stl_algo.h **** 	if (!(*__first == __value))
 889:c:\program files\codesourcery\sourcery_codebench_lite_for_arm_eabi\bin\../lib/gcc/arm-none-eabi/4.6.3/../../../../arm-none-eabi/include/c++/4.6.3/bits\stl_algo.h **** 	  {
 890:c:\program files\codesourcery\sourcery_codebench_lite_for_arm_eabi\bin\../lib/gcc/arm-none-eabi/4.6.3/../../../../arm-none-eabi/include/c++/4.6.3/bits\stl_algo.h **** 	    *__result = *__first;
 891:c:\program files\codesourcery\sourcery_codebench_lite_for_arm_eabi\bin\../lib/gcc/arm-none-eabi/4.6.3/../../../../arm-none-eabi/include/c++/4.6.3/bits\stl_algo.h **** 	    ++__result;
 892:c:\program files\codesourcery\sourcery_codebench_lite_for_arm_eabi\bin\../lib/gcc/arm-none-eabi/4.6.3/../../../../arm-none-eabi/include/c++/4.6.3/bits\stl_algo.h **** 	  }
 893:c:\program files\codesourcery\sourcery_codebench_lite_for_arm_eabi\bin\../lib/gcc/arm-none-eabi/4.6.3/../../../../arm-none-eabi/include/c++/4.6.3/bits\stl_algo.h ****       return __result;
 894:c:\program files\codesourcery\sourcery_codebench_lite_for_arm_eabi\bin\../lib/gcc/arm-none-eabi/4.6.3/../../../../arm-none-eabi/include/c++/4.6.3/bits\stl_algo.h ****     }
 895:c:\program files\codesourcery\sourcery_codebench_lite_for_arm_eabi\bin\../lib/gcc/arm-none-eabi/4.6.3/../../../../arm-none-eabi/include/c++/4.6.3/bits\stl_algo.h **** 
 896:c:\program files\codesourcery\sourcery_codebench_lite_for_arm_eabi\bin\../lib/gcc/arm-none-eabi/4.6.3/../../../../arm-none-eabi/include/c++/4.6.3/bits\stl_algo.h ****   /**
 897:c:\program files\codesourcery\sourcery_codebench_lite_for_arm_eabi\bin\../lib/gcc/arm-none-eabi/4.6.3/../../../../arm-none-eabi/include/c++/4.6.3/bits\stl_algo.h ****    *  @brief Copy a sequence, removing elements for which a predicate is true.
 898:c:\program files\codesourcery\sourcery_codebench_lite_for_arm_eabi\bin\../lib/gcc/arm-none-eabi/4.6.3/../../../../arm-none-eabi/include/c++/4.6.3/bits\stl_algo.h ****    *  @ingroup mutating_algorithms
 899:c:\program files\codesourcery\sourcery_codebench_lite_for_arm_eabi\bin\../lib/gcc/arm-none-eabi/4.6.3/../../../../arm-none-eabi/include/c++/4.6.3/bits\stl_algo.h ****    *  @param  first   An input iterator.
 900:c:\program files\codesourcery\sourcery_codebench_lite_for_arm_eabi\bin\../lib/gcc/arm-none-eabi/4.6.3/../../../../arm-none-eabi/include/c++/4.6.3/bits\stl_algo.h ****    *  @param  last    An input iterator.
 901:c:\program files\codesourcery\sourcery_codebench_lite_for_arm_eabi\bin\../lib/gcc/arm-none-eabi/4.6.3/../../../../arm-none-eabi/include/c++/4.6.3/bits\stl_algo.h ****    *  @param  result  An output iterator.
 902:c:\program files\codesourcery\sourcery_codebench_lite_for_arm_eabi\bin\../lib/gcc/arm-none-eabi/4.6.3/../../../../arm-none-eabi/include/c++/4.6.3/bits\stl_algo.h ****    *  @param  pred    A predicate.
 903:c:\program files\codesourcery\sourcery_codebench_lite_for_arm_eabi\bin\../lib/gcc/arm-none-eabi/4.6.3/../../../../arm-none-eabi/include/c++/4.6.3/bits\stl_algo.h ****    *  @return   An iterator designating the end of the resulting sequence.
 904:c:\program files\codesourcery\sourcery_codebench_lite_for_arm_eabi\bin\../lib/gcc/arm-none-eabi/4.6.3/../../../../arm-none-eabi/include/c++/4.6.3/bits\stl_algo.h ****    *
 905:c:\program files\codesourcery\sourcery_codebench_lite_for_arm_eabi\bin\../lib/gcc/arm-none-eabi/4.6.3/../../../../arm-none-eabi/include/c++/4.6.3/bits\stl_algo.h ****    *  Copies each element in the range @p [first,last) for which
 906:c:\program files\codesourcery\sourcery_codebench_lite_for_arm_eabi\bin\../lib/gcc/arm-none-eabi/4.6.3/../../../../arm-none-eabi/include/c++/4.6.3/bits\stl_algo.h ****    *  @p pred returns false to the range beginning at @p result.
 907:c:\program files\codesourcery\sourcery_codebench_lite_for_arm_eabi\bin\../lib/gcc/arm-none-eabi/4.6.3/../../../../arm-none-eabi/include/c++/4.6.3/bits\stl_algo.h ****    *
 908:c:\program files\codesourcery\sourcery_codebench_lite_for_arm_eabi\bin\../lib/gcc/arm-none-eabi/4.6.3/../../../../arm-none-eabi/include/c++/4.6.3/bits\stl_algo.h ****    *  remove_copy_if() is stable, so the relative order of elements that are
 909:c:\program files\codesourcery\sourcery_codebench_lite_for_arm_eabi\bin\../lib/gcc/arm-none-eabi/4.6.3/../../../../arm-none-eabi/include/c++/4.6.3/bits\stl_algo.h ****    *  copied is unchanged.
 910:c:\program files\codesourcery\sourcery_codebench_lite_for_arm_eabi\bin\../lib/gcc/arm-none-eabi/4.6.3/../../../../arm-none-eabi/include/c++/4.6.3/bits\stl_algo.h ****   */
 911:c:\program files\codesourcery\sourcery_codebench_lite_for_arm_eabi\bin\../lib/gcc/arm-none-eabi/4.6.3/../../../../arm-none-eabi/include/c++/4.6.3/bits\stl_algo.h ****   template<typename _InputIterator, typename _OutputIterator,
 912:c:\program files\codesourcery\sourcery_codebench_lite_for_arm_eabi\bin\../lib/gcc/arm-none-eabi/4.6.3/../../../../arm-none-eabi/include/c++/4.6.3/bits\stl_algo.h **** 	   typename _Predicate>
 913:c:\program files\codesourcery\sourcery_codebench_lite_for_arm_eabi\bin\../lib/gcc/arm-none-eabi/4.6.3/../../../../arm-none-eabi/include/c++/4.6.3/bits\stl_algo.h ****     _OutputIterator
 914:c:\program files\codesourcery\sourcery_codebench_lite_for_arm_eabi\bin\../lib/gcc/arm-none-eabi/4.6.3/../../../../arm-none-eabi/include/c++/4.6.3/bits\stl_algo.h ****     remove_copy_if(_InputIterator __first, _InputIterator __last,
 915:c:\program files\codesourcery\sourcery_codebench_lite_for_arm_eabi\bin\../lib/gcc/arm-none-eabi/4.6.3/../../../../arm-none-eabi/include/c++/4.6.3/bits\stl_algo.h **** 		   _OutputIterator __result, _Predicate __pred)
 916:c:\program files\codesourcery\sourcery_codebench_lite_for_arm_eabi\bin\../lib/gcc/arm-none-eabi/4.6.3/../../../../arm-none-eabi/include/c++/4.6.3/bits\stl_algo.h ****     {
 917:c:\program files\codesourcery\sourcery_codebench_lite_for_arm_eabi\bin\../lib/gcc/arm-none-eabi/4.6.3/../../../../arm-none-eabi/include/c++/4.6.3/bits\stl_algo.h ****       // concept requirements
 918:c:\program files\codesourcery\sourcery_codebench_lite_for_arm_eabi\bin\../lib/gcc/arm-none-eabi/4.6.3/../../../../arm-none-eabi/include/c++/4.6.3/bits\stl_algo.h ****       __glibcxx_function_requires(_InputIteratorConcept<_InputIterator>)
 919:c:\program files\codesourcery\sourcery_codebench_lite_for_arm_eabi\bin\../lib/gcc/arm-none-eabi/4.6.3/../../../../arm-none-eabi/include/c++/4.6.3/bits\stl_algo.h ****       __glibcxx_function_requires(_OutputIteratorConcept<_OutputIterator,
 920:c:\program files\codesourcery\sourcery_codebench_lite_for_arm_eabi\bin\../lib/gcc/arm-none-eabi/4.6.3/../../../../arm-none-eabi/include/c++/4.6.3/bits\stl_algo.h **** 	    typename iterator_traits<_InputIterator>::value_type>)
 921:c:\program files\codesourcery\sourcery_codebench_lite_for_arm_eabi\bin\../lib/gcc/arm-none-eabi/4.6.3/../../../../arm-none-eabi/include/c++/4.6.3/bits\stl_algo.h ****       __glibcxx_function_requires(_UnaryPredicateConcept<_Predicate,
 922:c:\program files\codesourcery\sourcery_codebench_lite_for_arm_eabi\bin\../lib/gcc/arm-none-eabi/4.6.3/../../../../arm-none-eabi/include/c++/4.6.3/bits\stl_algo.h **** 	    typename iterator_traits<_InputIterator>::value_type>)
 923:c:\program files\codesourcery\sourcery_codebench_lite_for_arm_eabi\bin\../lib/gcc/arm-none-eabi/4.6.3/../../../../arm-none-eabi/include/c++/4.6.3/bits\stl_algo.h ****       __glibcxx_requires_valid_range(__first, __last);
 924:c:\program files\codesourcery\sourcery_codebench_lite_for_arm_eabi\bin\../lib/gcc/arm-none-eabi/4.6.3/../../../../arm-none-eabi/include/c++/4.6.3/bits\stl_algo.h **** 
 925:c:\program files\codesourcery\sourcery_codebench_lite_for_arm_eabi\bin\../lib/gcc/arm-none-eabi/4.6.3/../../../../arm-none-eabi/include/c++/4.6.3/bits\stl_algo.h ****       for (; __first != __last; ++__first)
 926:c:\program files\codesourcery\sourcery_codebench_lite_for_arm_eabi\bin\../lib/gcc/arm-none-eabi/4.6.3/../../../../arm-none-eabi/include/c++/4.6.3/bits\stl_algo.h **** 	if (!bool(__pred(*__first)))
 927:c:\program files\codesourcery\sourcery_codebench_lite_for_arm_eabi\bin\../lib/gcc/arm-none-eabi/4.6.3/../../../../arm-none-eabi/include/c++/4.6.3/bits\stl_algo.h **** 	  {
 928:c:\program files\codesourcery\sourcery_codebench_lite_for_arm_eabi\bin\../lib/gcc/arm-none-eabi/4.6.3/../../../../arm-none-eabi/include/c++/4.6.3/bits\stl_algo.h **** 	    *__result = *__first;
 929:c:\program files\codesourcery\sourcery_codebench_lite_for_arm_eabi\bin\../lib/gcc/arm-none-eabi/4.6.3/../../../../arm-none-eabi/include/c++/4.6.3/bits\stl_algo.h **** 	    ++__result;
 930:c:\program files\codesourcery\sourcery_codebench_lite_for_arm_eabi\bin\../lib/gcc/arm-none-eabi/4.6.3/../../../../arm-none-eabi/include/c++/4.6.3/bits\stl_algo.h **** 	  }
 931:c:\program files\codesourcery\sourcery_codebench_lite_for_arm_eabi\bin\../lib/gcc/arm-none-eabi/4.6.3/../../../../arm-none-eabi/include/c++/4.6.3/bits\stl_algo.h ****       return __result;
 932:c:\program files\codesourcery\sourcery_codebench_lite_for_arm_eabi\bin\../lib/gcc/arm-none-eabi/4.6.3/../../../../arm-none-eabi/include/c++/4.6.3/bits\stl_algo.h ****     }
 933:c:\program files\codesourcery\sourcery_codebench_lite_for_arm_eabi\bin\../lib/gcc/arm-none-eabi/4.6.3/../../../../arm-none-eabi/include/c++/4.6.3/bits\stl_algo.h **** 
 934:c:\program files\codesourcery\sourcery_codebench_lite_for_arm_eabi\bin\../lib/gcc/arm-none-eabi/4.6.3/../../../../arm-none-eabi/include/c++/4.6.3/bits\stl_algo.h **** #ifdef __GXX_EXPERIMENTAL_CXX0X__
 935:c:\program files\codesourcery\sourcery_codebench_lite_for_arm_eabi\bin\../lib/gcc/arm-none-eabi/4.6.3/../../../../arm-none-eabi/include/c++/4.6.3/bits\stl_algo.h ****   /**
 936:c:\program files\codesourcery\sourcery_codebench_lite_for_arm_eabi\bin\../lib/gcc/arm-none-eabi/4.6.3/../../../../arm-none-eabi/include/c++/4.6.3/bits\stl_algo.h ****    *  @brief Copy the elements of a sequence for which a predicate is true.
 937:c:\program files\codesourcery\sourcery_codebench_lite_for_arm_eabi\bin\../lib/gcc/arm-none-eabi/4.6.3/../../../../arm-none-eabi/include/c++/4.6.3/bits\stl_algo.h ****    *  @ingroup mutating_algorithms
 938:c:\program files\codesourcery\sourcery_codebench_lite_for_arm_eabi\bin\../lib/gcc/arm-none-eabi/4.6.3/../../../../arm-none-eabi/include/c++/4.6.3/bits\stl_algo.h ****    *  @param  first   An input iterator.
 939:c:\program files\codesourcery\sourcery_codebench_lite_for_arm_eabi\bin\../lib/gcc/arm-none-eabi/4.6.3/../../../../arm-none-eabi/include/c++/4.6.3/bits\stl_algo.h ****    *  @param  last    An input iterator.
 940:c:\program files\codesourcery\sourcery_codebench_lite_for_arm_eabi\bin\../lib/gcc/arm-none-eabi/4.6.3/../../../../arm-none-eabi/include/c++/4.6.3/bits\stl_algo.h ****    *  @param  result  An output iterator.
 941:c:\program files\codesourcery\sourcery_codebench_lite_for_arm_eabi\bin\../lib/gcc/arm-none-eabi/4.6.3/../../../../arm-none-eabi/include/c++/4.6.3/bits\stl_algo.h ****    *  @param  pred    A predicate.
 942:c:\program files\codesourcery\sourcery_codebench_lite_for_arm_eabi\bin\../lib/gcc/arm-none-eabi/4.6.3/../../../../arm-none-eabi/include/c++/4.6.3/bits\stl_algo.h ****    *  @return   An iterator designating the end of the resulting sequence.
 943:c:\program files\codesourcery\sourcery_codebench_lite_for_arm_eabi\bin\../lib/gcc/arm-none-eabi/4.6.3/../../../../arm-none-eabi/include/c++/4.6.3/bits\stl_algo.h ****    *
 944:c:\program files\codesourcery\sourcery_codebench_lite_for_arm_eabi\bin\../lib/gcc/arm-none-eabi/4.6.3/../../../../arm-none-eabi/include/c++/4.6.3/bits\stl_algo.h ****    *  Copies each element in the range @p [first,last) for which
 945:c:\program files\codesourcery\sourcery_codebench_lite_for_arm_eabi\bin\../lib/gcc/arm-none-eabi/4.6.3/../../../../arm-none-eabi/include/c++/4.6.3/bits\stl_algo.h ****    *  @p pred returns true to the range beginning at @p result.
 946:c:\program files\codesourcery\sourcery_codebench_lite_for_arm_eabi\bin\../lib/gcc/arm-none-eabi/4.6.3/../../../../arm-none-eabi/include/c++/4.6.3/bits\stl_algo.h ****    *
 947:c:\program files\codesourcery\sourcery_codebench_lite_for_arm_eabi\bin\../lib/gcc/arm-none-eabi/4.6.3/../../../../arm-none-eabi/include/c++/4.6.3/bits\stl_algo.h ****    *  copy_if() is stable, so the relative order of elements that are
 948:c:\program files\codesourcery\sourcery_codebench_lite_for_arm_eabi\bin\../lib/gcc/arm-none-eabi/4.6.3/../../../../arm-none-eabi/include/c++/4.6.3/bits\stl_algo.h ****    *  copied is unchanged.
 949:c:\program files\codesourcery\sourcery_codebench_lite_for_arm_eabi\bin\../lib/gcc/arm-none-eabi/4.6.3/../../../../arm-none-eabi/include/c++/4.6.3/bits\stl_algo.h ****   */
 950:c:\program files\codesourcery\sourcery_codebench_lite_for_arm_eabi\bin\../lib/gcc/arm-none-eabi/4.6.3/../../../../arm-none-eabi/include/c++/4.6.3/bits\stl_algo.h ****   template<typename _InputIterator, typename _OutputIterator,
 951:c:\program files\codesourcery\sourcery_codebench_lite_for_arm_eabi\bin\../lib/gcc/arm-none-eabi/4.6.3/../../../../arm-none-eabi/include/c++/4.6.3/bits\stl_algo.h **** 	   typename _Predicate>
 952:c:\program files\codesourcery\sourcery_codebench_lite_for_arm_eabi\bin\../lib/gcc/arm-none-eabi/4.6.3/../../../../arm-none-eabi/include/c++/4.6.3/bits\stl_algo.h ****     _OutputIterator
 953:c:\program files\codesourcery\sourcery_codebench_lite_for_arm_eabi\bin\../lib/gcc/arm-none-eabi/4.6.3/../../../../arm-none-eabi/include/c++/4.6.3/bits\stl_algo.h ****     copy_if(_InputIterator __first, _InputIterator __last,
 954:c:\program files\codesourcery\sourcery_codebench_lite_for_arm_eabi\bin\../lib/gcc/arm-none-eabi/4.6.3/../../../../arm-none-eabi/include/c++/4.6.3/bits\stl_algo.h **** 	    _OutputIterator __result, _Predicate __pred)
 955:c:\program files\codesourcery\sourcery_codebench_lite_for_arm_eabi\bin\../lib/gcc/arm-none-eabi/4.6.3/../../../../arm-none-eabi/include/c++/4.6.3/bits\stl_algo.h ****     {
 956:c:\program files\codesourcery\sourcery_codebench_lite_for_arm_eabi\bin\../lib/gcc/arm-none-eabi/4.6.3/../../../../arm-none-eabi/include/c++/4.6.3/bits\stl_algo.h ****       // concept requirements
 957:c:\program files\codesourcery\sourcery_codebench_lite_for_arm_eabi\bin\../lib/gcc/arm-none-eabi/4.6.3/../../../../arm-none-eabi/include/c++/4.6.3/bits\stl_algo.h ****       __glibcxx_function_requires(_InputIteratorConcept<_InputIterator>)
 958:c:\program files\codesourcery\sourcery_codebench_lite_for_arm_eabi\bin\../lib/gcc/arm-none-eabi/4.6.3/../../../../arm-none-eabi/include/c++/4.6.3/bits\stl_algo.h ****       __glibcxx_function_requires(_OutputIteratorConcept<_OutputIterator,
 959:c:\program files\codesourcery\sourcery_codebench_lite_for_arm_eabi\bin\../lib/gcc/arm-none-eabi/4.6.3/../../../../arm-none-eabi/include/c++/4.6.3/bits\stl_algo.h **** 	    typename iterator_traits<_InputIterator>::value_type>)
 960:c:\program files\codesourcery\sourcery_codebench_lite_for_arm_eabi\bin\../lib/gcc/arm-none-eabi/4.6.3/../../../../arm-none-eabi/include/c++/4.6.3/bits\stl_algo.h ****       __glibcxx_function_requires(_UnaryPredicateConcept<_Predicate,
 961:c:\program files\codesourcery\sourcery_codebench_lite_for_arm_eabi\bin\../lib/gcc/arm-none-eabi/4.6.3/../../../../arm-none-eabi/include/c++/4.6.3/bits\stl_algo.h **** 	    typename iterator_traits<_InputIterator>::value_type>)
 962:c:\program files\codesourcery\sourcery_codebench_lite_for_arm_eabi\bin\../lib/gcc/arm-none-eabi/4.6.3/../../../../arm-none-eabi/include/c++/4.6.3/bits\stl_algo.h ****       __glibcxx_requires_valid_range(__first, __last);
 963:c:\program files\codesourcery\sourcery_codebench_lite_for_arm_eabi\bin\../lib/gcc/arm-none-eabi/4.6.3/../../../../arm-none-eabi/include/c++/4.6.3/bits\stl_algo.h **** 
 964:c:\program files\codesourcery\sourcery_codebench_lite_for_arm_eabi\bin\../lib/gcc/arm-none-eabi/4.6.3/../../../../arm-none-eabi/include/c++/4.6.3/bits\stl_algo.h ****       for (; __first != __last; ++__first)
 965:c:\program files\codesourcery\sourcery_codebench_lite_for_arm_eabi\bin\../lib/gcc/arm-none-eabi/4.6.3/../../../../arm-none-eabi/include/c++/4.6.3/bits\stl_algo.h **** 	if (__pred(*__first))
 966:c:\program files\codesourcery\sourcery_codebench_lite_for_arm_eabi\bin\../lib/gcc/arm-none-eabi/4.6.3/../../../../arm-none-eabi/include/c++/4.6.3/bits\stl_algo.h **** 	  {
 967:c:\program files\codesourcery\sourcery_codebench_lite_for_arm_eabi\bin\../lib/gcc/arm-none-eabi/4.6.3/../../../../arm-none-eabi/include/c++/4.6.3/bits\stl_algo.h **** 	    *__result = *__first;
 968:c:\program files\codesourcery\sourcery_codebench_lite_for_arm_eabi\bin\../lib/gcc/arm-none-eabi/4.6.3/../../../../arm-none-eabi/include/c++/4.6.3/bits\stl_algo.h **** 	    ++__result;
 969:c:\program files\codesourcery\sourcery_codebench_lite_for_arm_eabi\bin\../lib/gcc/arm-none-eabi/4.6.3/../../../../arm-none-eabi/include/c++/4.6.3/bits\stl_algo.h **** 	  }
 970:c:\program files\codesourcery\sourcery_codebench_lite_for_arm_eabi\bin\../lib/gcc/arm-none-eabi/4.6.3/../../../../arm-none-eabi/include/c++/4.6.3/bits\stl_algo.h ****       return __result;
 971:c:\program files\codesourcery\sourcery_codebench_lite_for_arm_eabi\bin\../lib/gcc/arm-none-eabi/4.6.3/../../../../arm-none-eabi/include/c++/4.6.3/bits\stl_algo.h ****     }
